; Listing generated by Microsoft (R) Optimizing Compiler Version 19.16.27034.0 

	TITLE	C:\Users\Administrator\Desktop\김지훈 - 미러월드\1.SRC\DxWFrame.cpp
	.686P
	.XMM
	include listing.inc
	.model	flat

INCLUDELIB LIBCMT
INCLUDELIB OLDNAMES

PUBLIC	?gAppSet@@3UtagAPP_SET@@A			; gAppSet
PUBLIC	?gbIsGod@@3HA					; gbIsGod
PUBLIC	?gbIsFirst@@3HA					; gbIsFirst
PUBLIC	?gbIsFull@@3HA					; gbIsFull
PUBLIC	?gFont@@3PAUHFONT__@@A				; gFont
PUBLIC	?gHdc@@3PAUHDC__@@A				; gHdc
PUBLIC	?g_Pos@@3UtagPOINT@@A				; g_Pos
PUBLIC	?g_BPos@@3UtagPOINT@@A				; g_BPos
PUBLIC	?g_bFadeIn@@3HA					; g_bFadeIn
PUBLIC	?g_bFadeOut@@3HA				; g_bFadeOut
PUBLIC	?g_bFadeLoop@@3HA				; g_bFadeLoop
PUBLIC	?g_bInc@@3HA					; g_bInc
PUBLIC	?g_bJump@@3HA					; g_bJump
PUBLIC	?g_bAccel@@3HA					; g_bAccel
PUBLIC	?g_bJaccel@@3HA					; g_bJaccel
PUBLIC	?g_bRight@@3HA					; g_bRight
PUBLIC	?g_bLeft@@3HA					; g_bLeft
PUBLIC	?g_bJRight@@3HA					; g_bJRight
PUBLIC	?g_bJLeft@@3HA					; g_bJLeft
PUBLIC	?g_bSetSpeed@@3HA				; g_bSetSpeed
PUBLIC	?g_bGrayScale@@3HA				; g_bGrayScale
PUBLIC	?g_bColorize@@3HA				; g_bColorize
PUBLIC	?g_bLookR@@3HA					; g_bLookR
PUBLIC	?g_bLookL@@3HA					; g_bLookL
PUBLIC	?g_bBLR@@3HA					; g_bBLR
PUBLIC	?g_bBLL@@3HA					; g_bBLL
PUBLIC	?g_bRush@@3HA					; g_bRush
PUBLIC	?g_bAR@@3HA					; g_bAR
PUBLIC	?g_bAL@@3HA					; g_bAL
PUBLIC	?g_bAtt@@3HA					; g_bAtt
PUBLIC	?g_bRushR@@3HA					; g_bRushR
PUBLIC	?g_bRushL@@3HA					; g_bRushL
PUBLIC	?musicstart@@3HA				; musicstart
PUBLIC	?bossimmu@@3HA					; bossimmu
PUBLIC	?g_bBAT@@3HA					; g_bBAT
PUBLIC	?Delay@@3HA					; Delay
PUBLIC	?g_dwFadeRate@@3KA				; g_dwFadeRate
PUBLIC	?g_dwR@@3KA					; g_dwR
PUBLIC	?g_dwG@@3KA					; g_dwG
PUBLIC	?g_dwB@@3KA					; g_dwB
PUBLIC	?g_dwFADELUT@@3PAY0GF@KA			; g_dwFADELUT
PUBLIC	?g_ddsd@@3U_DDSURFACEDESC2@@A			; g_ddsd
PUBLIC	?g_dwPixelFormat@@3KA				; g_dwPixelFormat
PUBLIC	?g_dwRGBBitCount@@3KA				; g_dwRGBBitCount
PUBLIC	?g_pDS@@3PAPAUIDirectSoundBuffer@@A		; g_pDS
PUBLIC	?g_pDD@@3PAUIDirectDraw7@@A			; g_pDD
PUBLIC	?g_pDDSPrimary@@3PAUIDirectDrawSurface7@@A	; g_pDDSPrimary
PUBLIC	?g_pDDSBack@@3PAUIDirectDrawSurface7@@A		; g_pDDSBack
PUBLIC	?g_pDDSOne@@3PAUIDirectDrawSurface7@@A		; g_pDDSOne
PUBLIC	?g_pDDSOneR@@3PAUIDirectDrawSurface7@@A		; g_pDDSOneR
PUBLIC	?g_pDDSTwo@@3PAUIDirectDrawSurface7@@A		; g_pDDSTwo
PUBLIC	?g_pDDSTwoR@@3PAUIDirectDrawSurface7@@A		; g_pDDSTwoR
PUBLIC	?g_pDDSSkill@@3PAUIDirectDrawSurface7@@A	; g_pDDSSkill
PUBLIC	?g_pDDSSkillR@@3PAUIDirectDrawSurface7@@A	; g_pDDSSkillR
PUBLIC	?g_pDDSHP@@3PAUIDirectDrawSurface7@@A		; g_pDDSHP
PUBLIC	?g_pDDSTITLE@@3PAUIDirectDrawSurface7@@A	; g_pDDSTITLE
PUBLIC	?g_BossAtt@@3PAUIDirectDrawSurface7@@A		; g_BossAtt
PUBLIC	?g_BossAtt2@@3PAUIDirectDrawSurface7@@A		; g_BossAtt2
PUBLIC	?g_pDDSHPbar@@3PAUIDirectDrawSurface7@@A	; g_pDDSHPbar
PUBLIC	?g_pDDSPHP@@3PAUIDirectDrawSurface7@@A		; g_pDDSPHP
PUBLIC	?g_pDDSCHARGE@@3PAUIDirectDrawSurface7@@A	; g_pDDSCHARGE
PUBLIC	?g_pDDSCHARGER@@3PAUIDirectDrawSurface7@@A	; g_pDDSCHARGER
PUBLIC	?g_pDDSPHPbar@@3PAUIDirectDrawSurface7@@A	; g_pDDSPHPbar
PUBLIC	?g_pDDSBG@@3PAUIDirectDrawSurface7@@A		; g_pDDSBG
PUBLIC	?g_pDDSBG2@@3PAUIDirectDrawSurface7@@A		; g_pDDSBG2
PUBLIC	?g_pDDSBG3@@3PAUIDirectDrawSurface7@@A		; g_pDDSBG3
PUBLIC	?g_pDDSCast@@3PAUIDirectDrawSurface7@@A		; g_pDDSCast
PUBLIC	?g_pDDSCast2@@3PAUIDirectDrawSurface7@@A	; g_pDDSCast2
PUBLIC	?g_pDDSCastAtt@@3PAUIDirectDrawSurface7@@A	; g_pDDSCastAtt
PUBLIC	?g_pDDSBossAtt@@3PAUIDirectDrawSurface7@@A	; g_pDDSBossAtt
PUBLIC	?g_pDDSBossAttR@@3PAUIDirectDrawSurface7@@A	; g_pDDSBossAttR
PUBLIC	?g_pDDSBoss3Att@@3PAUIDirectDrawSurface7@@A	; g_pDDSBoss3Att
PUBLIC	?g_pDDSBoss3AttR@@3PAUIDirectDrawSurface7@@A	; g_pDDSBoss3AttR
PUBLIC	?g_pDDSBoss3Att2@@3PAUIDirectDrawSurface7@@A	; g_pDDSBoss3Att2
PUBLIC	?g_pDDSBoss3AttR2@@3PAUIDirectDrawSurface7@@A	; g_pDDSBoss3AttR2
PUBLIC	?g_pDDSBoss3Att3@@3PAUIDirectDrawSurface7@@A	; g_pDDSBoss3Att3
PUBLIC	?g_pDDSBoss3AttR3@@3PAUIDirectDrawSurface7@@A	; g_pDDSBoss3AttR3
PUBLIC	?g_pDDSGroundAtt@@3PAUIDirectDrawSurface7@@A	; g_pDDSGroundAtt
PUBLIC	?g_pDDSDragAtt@@3PAUIDirectDrawSurface7@@A	; g_pDDSDragAtt
PUBLIC	?g_pDDSDragAttR@@3PAUIDirectDrawSurface7@@A	; g_pDDSDragAttR
PUBLIC	?g_pDDSP3standL@@3PAUIDirectDrawSurface7@@A	; g_pDDSP3standL
PUBLIC	?g_pDDSDHole@@3PAUIDirectDrawSurface7@@A	; g_pDDSDHole
PUBLIC	?g_pDDSP3standR@@3PAUIDirectDrawSurface7@@A	; g_pDDSP3standR
PUBLIC	?g_pDDSDBossHit@@3PAUIDirectDrawSurface7@@A	; g_pDDSDBossHit
PUBLIC	?g_pDDSDPlayerHit@@3PAUIDirectDrawSurface7@@A	; g_pDDSDPlayerHit
PUBLIC	?g_pDDSEnd@@3PAUIDirectDrawSurface7@@A		; g_pDDSEnd
PUBLIC	?g_pDDSGameover@@3PAUIDirectDrawSurface7@@A	; g_pDDSGameover
PUBLIC	?g_pDDSPlayerskill@@3PAUIDirectDrawSurface7@@A	; g_pDDSPlayerskill
PUBLIC	?g_pDDSSkillBut@@3PAUIDirectDrawSurface7@@A	; g_pDDSSkillBut
PUBLIC	?g_pDDSSkillCool@@3PAUIDirectDrawSurface7@@A	; g_pDDSSkillCool
PUBLIC	?g_pDDPal@@3PAUIDirectDrawPalette@@A		; g_pDDPal
PUBLIC	?g_pDDClipper@@3PAUIDirectDrawClipper@@A	; g_pDDClipper
PUBLIC	?g_pDDSVBuffer@@3PAUIDirectDrawSurface7@@A	; g_pDDSVBuffer
PUBLIC	?g_pDDSSBuffer@@3PAUIDirectDrawSurface7@@A	; g_pDDSSBuffer
PUBLIC	?g_pDDSSBuffer2@@3PAUIDirectDrawSurface7@@A	; g_pDDSSBuffer2
PUBLIC	?Bx@@3HA					; Bx
PUBLIC	?Gravity@@3HA					; Gravity
PUBLIC	?Hspeed@@3HA					; Hspeed
PUBLIC	?P1MHP@@3HA					; P1MHP
PUBLIC	?P2MHP@@3HA					; P2MHP
PUBLIC	?P3MHP@@3HA					; P3MHP
PUBLIC	?cx@@3HA					; cx
PUBLIC	?cy@@3HA					; cy
PUBLIC	?o@@3HA						; o
PUBLIC	?P3randpat@@3HA					; P3randpat
PUBLIC	?P3randpat2@@3HA				; P3randpat2
PUBLIC	?isSafe@@3HA					; isSafe
PUBLIC	?g_bCast@@3HA					; g_bCast
PUBLIC	?g_bCRight@@3HA					; g_bCRight
PUBLIC	?g_bCLeft@@3HA					; g_bCLeft
PUBLIC	?g_bCFire@@3HA					; g_bCFire
PUBLIC	?g_bHit@@3HA					; g_bHit
PUBLIC	?Mirror@@3HA					; Mirror
PUBLIC	?BossAtt@@3HA					; BossAtt
PUBLIC	?BAR@@3HA					; BAR
PUBLIC	?BAL@@3HA					; BAL
PUBLIC	?BARR@@3HA					; BARR
PUBLIC	?BALL@@3HA					; BALL
PUBLIC	?Muffle@@3HA					; Muffle
PUBLIC	?P5Mus@@3HA					; P5Mus
PUBLIC	?CastHit@@3HA					; CastHit
PUBLIC	?Skilluse@@3HA					; Skilluse
PUBLIC	?BigHit@@3HA					; BigHit
PUBLIC	?PlayerMHP@@3HA					; PlayerMHP
PUBLIC	?Randpat@@3HA					; Randpat
PUBLIC	?Randpat2@@3HA					; Randpat2
PUBLIC	?P2musicstart@@3HA				; P2musicstart
PUBLIC	?RandNum@@3PAHA					; RandNum
PUBLIC	?Maximum@@3HA					; Maximum
PUBLIC	?Knockspd@@3HA					; Knockspd
PUBLIC	?PlayerHPrate@@3MA				; PlayerHPrate
PUBLIC	?P1HPrate@@3MA					; P1HPrate
PUBLIC	?P2HPrate@@3MA					; P2HPrate
PUBLIC	?P3HPrate@@3MA					; P3HPrate
PUBLIC	?KnockHspeed@@3HA				; KnockHspeed
PUBLIC	?Bframe@@3HA					; Bframe
PUBLIC	?BAframe@@3HA					; BAframe
PUBLIC	?Aframe@@3HA					; Aframe
PUBLIC	?Cframe@@3HA					; Cframe
PUBLIC	?CAframe@@3HA					; CAframe
PUBLIC	?CAAframe@@3HA					; CAAframe
PUBLIC	?BKframe@@3HA					; BKframe
PUBLIC	?DRframe@@3HA					; DRframe
PUBLIC	?GAframe@@3HA					; GAframe
PUBLIC	?SPframe@@3HA					; SPframe
PUBLIC	?PHframe@@3HA					; PHframe
PUBLIC	?BHframe@@3PAHA					; BHframe
PUBLIC	?PSframe@@3HA					; PSframe
PUBLIC	?SpikeX@@3PAHA					; SpikeX
PUBLIC	?SpikeY@@3HA					; SpikeY
PUBLIC	?MaxTime@@3HA					; MaxTime
PUBLIC	?Skillcheat@@3HA				; Skillcheat
PUBLIC	?Timerrate@@3MA					; Timerrate
PUBLIC	?Pimmune@@3HA					; Pimmune
PUBLIC	?HIT@@3UtagRECT@@A				; HIT
PUBLIC	?BOSS@@3UtagRECT@@A				; BOSS
PUBLIC	?rcDest@@3UtagRECT@@A				; rcDest
PUBLIC	?BAHIT@@3PAUtagRECT@@A				; BAHIT
PUBLIC	?PHIT@@3UtagRECT@@A				; PHIT
PUBLIC	?Cast@@3UtagRECT@@A				; Cast
PUBLIC	?Knock@@3UtagRECT@@A				; Knock
PUBLIC	?Spike@@3PAUtagRECT@@A				; Spike
PUBLIC	?p1die@@3HA					; p1die
PUBLIC	?p2die@@3HA					; p2die
PUBLIC	?p3die@@3HA					; p3die
PUBLIC	?Drag@@3HA					; Drag
PUBLIC	?Knockback@@3HA					; Knockback
PUBLIC	?KnockHIT@@3HA					; KnockHIT
PUBLIC	?p3musicstart@@3HA				; p3musicstart
PUBLIC	?P4Mus@@3HA					; P4Mus
PUBLIC	?g_bGatt@@3HA					; g_bGatt
PUBLIC	?g_bSpike@@3HA					; g_bSpike
PUBLIC	?PHplay@@3HA					; PHplay
PUBLIC	?BHplay@@3PAHA					; BHplay
PUBLIC	?BHMPlay@@3HA					; BHMPlay
PUBLIC	?g_nPhaze@@3HA					; g_nPhaze
PUBLIC	?Timer@@3PAHA					; Timer
_BSS	SEGMENT
?gAppSet@@3UtagAPP_SET@@A DB 014H DUP (?)		; gAppSet
?gbIsGod@@3HA DD 01H DUP (?)				; gbIsGod
?gFont@@3PAUHFONT__@@A DD 01H DUP (?)			; gFont
?gHdc@@3PAUHDC__@@A DD 01H DUP (?)			; gHdc
?g_Pos@@3UtagPOINT@@A DQ 01H DUP (?)			; g_Pos
?g_BPos@@3UtagPOINT@@A DQ 01H DUP (?)			; g_BPos
?g_bFadeIn@@3HA DD 01H DUP (?)				; g_bFadeIn
?g_bFadeOut@@3HA DD 01H DUP (?)				; g_bFadeOut
?g_bFadeLoop@@3HA DD 01H DUP (?)			; g_bFadeLoop
?g_bInc@@3HA DD	01H DUP (?)				; g_bInc
?g_bJump@@3HA DD 01H DUP (?)				; g_bJump
?g_bAccel@@3HA DD 01H DUP (?)				; g_bAccel
?g_bJaccel@@3HA DD 01H DUP (?)				; g_bJaccel
?g_bRight@@3HA DD 01H DUP (?)				; g_bRight
?g_bLeft@@3HA DD 01H DUP (?)				; g_bLeft
?g_bJRight@@3HA DD 01H DUP (?)				; g_bJRight
?g_bJLeft@@3HA DD 01H DUP (?)				; g_bJLeft
?g_bSetSpeed@@3HA DD 01H DUP (?)			; g_bSetSpeed
?g_bGrayScale@@3HA DD 01H DUP (?)			; g_bGrayScale
?g_bColorize@@3HA DD 01H DUP (?)			; g_bColorize
?g_bLookL@@3HA DD 01H DUP (?)				; g_bLookL
?g_bBLL@@3HA DD	01H DUP (?)				; g_bBLL
?g_bRush@@3HA DD 01H DUP (?)				; g_bRush
?g_bAR@@3HA DD	01H DUP (?)				; g_bAR
?g_bAL@@3HA DD	01H DUP (?)				; g_bAL
?g_bAtt@@3HA DD	01H DUP (?)				; g_bAtt
?g_bRushR@@3HA DD 01H DUP (?)				; g_bRushR
?g_bRushL@@3HA DD 01H DUP (?)				; g_bRushL
?musicstart@@3HA DD 01H DUP (?)				; musicstart
?bossimmu@@3HA DD 01H DUP (?)				; bossimmu
?g_bBAT@@3HA DD	01H DUP (?)				; g_bBAT
?Delay@@3HA DD	01H DUP (?)				; Delay
?g_dwFadeRate@@3KA DD 01H DUP (?)			; g_dwFadeRate
?g_dwR@@3KA DD	01H DUP (?)				; g_dwR
?g_dwG@@3KA DD	01H DUP (?)				; g_dwG
?g_dwB@@3KA DD	01H DUP (?)				; g_dwB
?g_dwFADELUT@@3PAY0GF@KA DD 01940H DUP (?)		; g_dwFADELUT
?g_ddsd@@3U_DDSURFACEDESC2@@A DB 07cH DUP (?)		; g_ddsd
?g_dwPixelFormat@@3KA DD 01H DUP (?)			; g_dwPixelFormat
?g_dwRGBBitCount@@3KA DD 01H DUP (?)			; g_dwRGBBitCount
?g_pDS@@3PAPAUIDirectSoundBuffer@@A DD 07H DUP (?)	; g_pDS
?g_pDD@@3PAUIDirectDraw7@@A DD 01H DUP (?)		; g_pDD
?g_pDDSPrimary@@3PAUIDirectDrawSurface7@@A DD 01H DUP (?) ; g_pDDSPrimary
?g_pDDSBack@@3PAUIDirectDrawSurface7@@A DD 01H DUP (?)	; g_pDDSBack
?g_pDDSOne@@3PAUIDirectDrawSurface7@@A DD 01H DUP (?)	; g_pDDSOne
?g_pDDSOneR@@3PAUIDirectDrawSurface7@@A DD 01H DUP (?)	; g_pDDSOneR
?g_pDDSTwo@@3PAUIDirectDrawSurface7@@A DD 01H DUP (?)	; g_pDDSTwo
?g_pDDSTwoR@@3PAUIDirectDrawSurface7@@A DD 01H DUP (?)	; g_pDDSTwoR
?g_pDDSSkill@@3PAUIDirectDrawSurface7@@A DD 01H DUP (?)	; g_pDDSSkill
?g_pDDSSkillR@@3PAUIDirectDrawSurface7@@A DD 01H DUP (?) ; g_pDDSSkillR
?g_pDDSHP@@3PAUIDirectDrawSurface7@@A DD 01H DUP (?)	; g_pDDSHP
?g_pDDSTITLE@@3PAUIDirectDrawSurface7@@A DD 01H DUP (?)	; g_pDDSTITLE
?g_BossAtt@@3PAUIDirectDrawSurface7@@A DD 01H DUP (?)	; g_BossAtt
?g_BossAtt2@@3PAUIDirectDrawSurface7@@A DD 01H DUP (?)	; g_BossAtt2
?g_pDDSHPbar@@3PAUIDirectDrawSurface7@@A DD 01H DUP (?)	; g_pDDSHPbar
?g_pDDSPHP@@3PAUIDirectDrawSurface7@@A DD 01H DUP (?)	; g_pDDSPHP
?g_pDDSCHARGE@@3PAUIDirectDrawSurface7@@A DD 01H DUP (?) ; g_pDDSCHARGE
?g_pDDSCHARGER@@3PAUIDirectDrawSurface7@@A DD 01H DUP (?) ; g_pDDSCHARGER
?g_pDDSPHPbar@@3PAUIDirectDrawSurface7@@A DD 01H DUP (?) ; g_pDDSPHPbar
?g_pDDSBG@@3PAUIDirectDrawSurface7@@A DD 01H DUP (?)	; g_pDDSBG
?g_pDDSBG2@@3PAUIDirectDrawSurface7@@A DD 01H DUP (?)	; g_pDDSBG2
?g_pDDSBG3@@3PAUIDirectDrawSurface7@@A DD 01H DUP (?)	; g_pDDSBG3
?g_pDDSCast@@3PAUIDirectDrawSurface7@@A DD 01H DUP (?)	; g_pDDSCast
?g_pDDSCast2@@3PAUIDirectDrawSurface7@@A DD 01H DUP (?)	; g_pDDSCast2
?g_pDDSCastAtt@@3PAUIDirectDrawSurface7@@A DD 01H DUP (?) ; g_pDDSCastAtt
?g_pDDSBossAtt@@3PAUIDirectDrawSurface7@@A DD 01H DUP (?) ; g_pDDSBossAtt
?g_pDDSBossAttR@@3PAUIDirectDrawSurface7@@A DD 01H DUP (?) ; g_pDDSBossAttR
?g_pDDSBoss3Att@@3PAUIDirectDrawSurface7@@A DD 01H DUP (?) ; g_pDDSBoss3Att
?g_pDDSBoss3AttR@@3PAUIDirectDrawSurface7@@A DD 01H DUP (?) ; g_pDDSBoss3AttR
?g_pDDSBoss3Att2@@3PAUIDirectDrawSurface7@@A DD 01H DUP (?) ; g_pDDSBoss3Att2
?g_pDDSBoss3AttR2@@3PAUIDirectDrawSurface7@@A DD 01H DUP (?) ; g_pDDSBoss3AttR2
?g_pDDSBoss3Att3@@3PAUIDirectDrawSurface7@@A DD 01H DUP (?) ; g_pDDSBoss3Att3
?g_pDDSBoss3AttR3@@3PAUIDirectDrawSurface7@@A DD 01H DUP (?) ; g_pDDSBoss3AttR3
?g_pDDSGroundAtt@@3PAUIDirectDrawSurface7@@A DD 01H DUP (?) ; g_pDDSGroundAtt
?g_pDDSDragAtt@@3PAUIDirectDrawSurface7@@A DD 01H DUP (?) ; g_pDDSDragAtt
?g_pDDSDragAttR@@3PAUIDirectDrawSurface7@@A DD 01H DUP (?) ; g_pDDSDragAttR
?g_pDDSP3standL@@3PAUIDirectDrawSurface7@@A DD 01H DUP (?) ; g_pDDSP3standL
?g_pDDSDHole@@3PAUIDirectDrawSurface7@@A DD 01H DUP (?)	; g_pDDSDHole
?g_pDDSP3standR@@3PAUIDirectDrawSurface7@@A DD 01H DUP (?) ; g_pDDSP3standR
?g_pDDSDBossHit@@3PAUIDirectDrawSurface7@@A DD 01H DUP (?) ; g_pDDSDBossHit
?g_pDDSDPlayerHit@@3PAUIDirectDrawSurface7@@A DD 01H DUP (?) ; g_pDDSDPlayerHit
?g_pDDSEnd@@3PAUIDirectDrawSurface7@@A DD 01H DUP (?)	; g_pDDSEnd
?g_pDDSGameover@@3PAUIDirectDrawSurface7@@A DD 01H DUP (?) ; g_pDDSGameover
?g_pDDSPlayerskill@@3PAUIDirectDrawSurface7@@A DD 01H DUP (?) ; g_pDDSPlayerskill
?g_pDDSSkillBut@@3PAUIDirectDrawSurface7@@A DD 01H DUP (?) ; g_pDDSSkillBut
?g_pDDSSkillCool@@3PAUIDirectDrawSurface7@@A DD 01H DUP (?) ; g_pDDSSkillCool
?g_pDDPal@@3PAUIDirectDrawPalette@@A DD 01H DUP (?)	; g_pDDPal
?g_pDDClipper@@3PAUIDirectDrawClipper@@A DD 01H DUP (?)	; g_pDDClipper
?g_pDDSVBuffer@@3PAUIDirectDrawSurface7@@A DD 01H DUP (?) ; g_pDDSVBuffer
?g_pDDSSBuffer@@3PAUIDirectDrawSurface7@@A DD 01H DUP (?) ; g_pDDSSBuffer
?g_pDDSSBuffer2@@3PAUIDirectDrawSurface7@@A DD 01H DUP (?) ; g_pDDSSBuffer2
?Bx@@3HA DD	01H DUP (?)				; Bx
?Hspeed@@3HA DD	01H DUP (?)				; Hspeed
?cx@@3HA DD	01H DUP (?)				; cx
?cy@@3HA DD	01H DUP (?)				; cy
?o@@3HA	DD	01H DUP (?)				; o
?P3randpat@@3HA DD 01H DUP (?)				; P3randpat
?P3randpat2@@3HA DD 01H DUP (?)				; P3randpat2
?isSafe@@3HA DD	01H DUP (?)				; isSafe
?g_bCast@@3HA DD 01H DUP (?)				; g_bCast
?g_bCRight@@3HA DD 01H DUP (?)				; g_bCRight
?g_bCLeft@@3HA DD 01H DUP (?)				; g_bCLeft
?g_bCFire@@3HA DD 01H DUP (?)				; g_bCFire
?g_bHit@@3HA DD	01H DUP (?)				; g_bHit
?Mirror@@3HA DD	01H DUP (?)				; Mirror
?BossAtt@@3HA DD 01H DUP (?)				; BossAtt
?BAR@@3HA DD	01H DUP (?)				; BAR
?BAL@@3HA DD	01H DUP (?)				; BAL
?BARR@@3HA DD	01H DUP (?)				; BARR
?BALL@@3HA DD	01H DUP (?)				; BALL
?Muffle@@3HA DD	01H DUP (?)				; Muffle
?P5Mus@@3HA DD	01H DUP (?)				; P5Mus
?CastHit@@3HA DD 01H DUP (?)				; CastHit
?Skilluse@@3HA DD 01H DUP (?)				; Skilluse
?BigHit@@3HA DD	01H DUP (?)				; BigHit
?Randpat@@3HA DD 01H DUP (?)				; Randpat
?Randpat2@@3HA DD 01H DUP (?)				; Randpat2
?P2musicstart@@3HA DD 01H DUP (?)			; P2musicstart
?RandNum@@3PAHA DD 05H DUP (?)				; RandNum
?Maximum@@3HA DD 01H DUP (?)				; Maximum
?Knockspd@@3HA DD 01H DUP (?)				; Knockspd
?KnockHspeed@@3HA DD 01H DUP (?)			; KnockHspeed
?Bframe@@3HA DD	01H DUP (?)				; Bframe
?BAframe@@3HA DD 01H DUP (?)				; BAframe
?Aframe@@3HA DD	01H DUP (?)				; Aframe
?Cframe@@3HA DD	01H DUP (?)				; Cframe
?CAframe@@3HA DD 01H DUP (?)				; CAframe
?CAAframe@@3HA DD 01H DUP (?)				; CAAframe
?BKframe@@3HA DD 01H DUP (?)				; BKframe
?DRframe@@3HA DD 01H DUP (?)				; DRframe
?GAframe@@3HA DD 01H DUP (?)				; GAframe
?SPframe@@3HA DD 01H DUP (?)				; SPframe
?PHframe@@3HA DD 01H DUP (?)				; PHframe
?BHframe@@3PAHA DD 03H DUP (?)				; BHframe
?PSframe@@3HA DD 01H DUP (?)				; PSframe
?SpikeX@@3PAHA DD 0aH DUP (?)				; SpikeX
?SpikeY@@3HA DD	01H DUP (?)				; SpikeY
?Skillcheat@@3HA DD 01H DUP (?)				; Skillcheat
?Pimmune@@3HA DD 01H DUP (?)				; Pimmune
?HIT@@3UtagRECT@@A DB 010H DUP (?)			; HIT
?BOSS@@3UtagRECT@@A DB 010H DUP (?)			; BOSS
?rcDest@@3UtagRECT@@A DB 010H DUP (?)			; rcDest
?BAHIT@@3PAUtagRECT@@A DB 050H DUP (?)			; BAHIT
?PHIT@@3UtagRECT@@A DB 010H DUP (?)			; PHIT
?Cast@@3UtagRECT@@A DB 010H DUP (?)			; Cast
?Knock@@3UtagRECT@@A DB 010H DUP (?)			; Knock
?Spike@@3PAUtagRECT@@A DB 0a0H DUP (?)			; Spike
?p1die@@3HA DD	01H DUP (?)				; p1die
?p2die@@3HA DD	01H DUP (?)				; p2die
?p3die@@3HA DD	01H DUP (?)				; p3die
?Drag@@3HA DD	01H DUP (?)				; Drag
?Knockback@@3HA DD 01H DUP (?)				; Knockback
?KnockHIT@@3HA DD 01H DUP (?)				; KnockHIT
?p3musicstart@@3HA DD 01H DUP (?)			; p3musicstart
?P4Mus@@3HA DD	01H DUP (?)				; P4Mus
?g_bGatt@@3HA DD 01H DUP (?)				; g_bGatt
?g_bSpike@@3HA DD 01H DUP (?)				; g_bSpike
?PHplay@@3HA DD	01H DUP (?)				; PHplay
?BHplay@@3PAHA DD 03H DUP (?)				; BHplay
?BHMPlay@@3HA DD 01H DUP (?)				; BHMPlay
?g_nPhaze@@3HA DD 01H DUP (?)				; g_nPhaze
?Timer@@3PAHA DD 020H DUP (?)				; Timer
_BSS	ENDS
_DATA	SEGMENT
?gbIsFirst@@3HA DD 01H					; gbIsFirst
?gbIsFull@@3HA DD 01H					; gbIsFull
?g_bLookR@@3HA DD 01H					; g_bLookR
?g_bBLR@@3HA DD	01H					; g_bBLR
?Gravity@@3HA DD 0dH					; Gravity
?P1MHP@@3HA DD	0bb8H					; P1MHP
?P2MHP@@3HA DD	01388H					; P2MHP
?P3MHP@@3HA DD	02710H					; P3MHP
?PlayerMHP@@3HA DD 09c40H				; PlayerMHP
?PlayerHPrate@@3MA DD 03f800000r		; 1	; PlayerHPrate
?P1HPrate@@3MA DD 03f800000r			; 1	; P1HPrate
?P2HPrate@@3MA DD 03f800000r			; 1	; P2HPrate
?P3HPrate@@3MA DD 03f800000r			; 1	; P3HPrate
?MaxTime@@3HA DD 01f4H					; MaxTime
?Timerrate@@3MA DD 03f800000r			; 1	; Timerrate
_DATA	ENDS
PUBLIC	_WinMain@16
PUBLIC	___local_stdio_printf_options
PUBLIC	?DXW_Init@@YAHXZ				; DXW_Init
PUBLIC	?DXW_MainLoop@@YAXXZ				; DXW_MainLoop
PUBLIC	?DXW_DisplayInfo@@YAXXZ				; DXW_DisplayInfo
PUBLIC	?DXW_ReleaseWinMode@@YAXXZ			; DXW_ReleaseWinMode
PUBLIC	?__WndProc@@YGJPAUHWND__@@IIJ@Z			; __WndProc
PUBLIC	?__WinKeyDown@@YAXPAUHWND__@@I@Z		; __WinKeyDown
PUBLIC	?__WinDestroy@@YAXXZ				; __WinDestroy
PUBLIC	?__DDInit@@YAHXZ				; __DDInit
PUBLIC	?__DDInitWin@@YAHH@Z				; __DDInitWin
PUBLIC	?__DDSWBlt@@YAJXZ				; __DDSWBlt
PUBLIC	?__ReleaseAllObjects@@YAXXZ			; __ReleaseAllObjects
PUBLIC	?__CreateSurface@@YAPAUIDirectDrawSurface7@@KKH@Z ; __CreateSurface
PUBLIC	?__DDCSetClipperWin@@YAHXZ			; __DDCSetClipperWin
PUBLIC	?__DDCSetClipper@@YAHPAUIDirectDrawSurface7@@HHHH@Z ; __DDCSetClipper
PUBLIC	?__DDCSetClipperList@@YAHPAUIDirectDrawSurface7@@PAUtagRECT@@H@Z ; __DDCSetClipperList
PUBLIC	?__CreateFont@@YAXPBDHH@Z			; __CreateFont
PUBLIC	?__DestroyFont@@YAXXZ				; __DestroyFont
PUBLIC	?__PutText@@YAXHHKPBD@Z				; __PutText
PUBLIC	?__PutTextf@@YAXHHKPADZZ			; __PutTextf
PUBLIC	?__GetDC@@YAXPAUIDirectDrawSurface7@@@Z		; __GetDC
PUBLIC	?__ReleaseDC@@YAXPAUIDirectDrawSurface7@@@Z	; __ReleaseDC
PUBLIC	?__Lock@@YAHPAUIDirectDrawSurface7@@@Z		; __Lock
PUBLIC	?__Unlock@@YAHPAUIDirectDrawSurface7@@@Z	; __Unlock
PUBLIC	?__PutPixel32@@YAXHHK@Z				; __PutPixel32
PUBLIC	?__PutPixel16@@YAXHHG@Z				; __PutPixel16
PUBLIC	?__PutPixel8@@YAXHHE@Z				; __PutPixel8
PUBLIC	?__GetPixel16@@YAGHH@Z				; __GetPixel16
PUBLIC	?__DrawVLine16@@YAXHHHG@Z			; __DrawVLine16
PUBLIC	?__DrawHLine16@@YAXHHHG@Z			; __DrawHLine16
PUBLIC	?__DrawRect16@@YAXHHHHG@Z			; __DrawRect16
PUBLIC	?__CheckRGBBit@@YAKPAUIDirectDrawSurface7@@@Z	; __CheckRGBBit
PUBLIC	?__GetPixelRGB16@@YAGHHH@Z			; __GetPixelRGB16
PUBLIC	?__CPYDDS@@YAXHHPAUtagRECT@@@Z			; __CPYDDS
PUBLIC	?__DDLoadBin@@YAPAUIDirectDrawSurface7@@PBDH@Z	; __DDLoadBin
PUBLIC	?__MEM2DDS@@YAHPAUIDirectDrawSurface7@@PAEHH@Z	; __MEM2DDS
PUBLIC	?__PutImage@@YAXPAUIDirectDrawSurface7@@HH@Z	; __PutImage
PUBLIC	?__PutSprite@@YAXPAUIDirectDrawSurface7@@HH@Z	; __PutSprite
PUBLIC	?__Putbar@@YAXPAUIDirectDrawSurface7@@HHHHM@Z	; __Putbar
PUBLIC	?__PutAnimeSprite@@YAXPAUIDirectDrawSurface7@@HHHHHHH@Z ; __PutAnimeSprite
PUBLIC	?__PutImageLock@@YAXPAUIDirectDrawSurface7@@HH@Z ; __PutImageLock
PUBLIC	?__PutSpriteLock16@@YAXPAUIDirectDrawSurface7@@HH@Z ; __PutSpriteLock16
PUBLIC	?__PutSpriteLock32@@YAXPAUIDirectDrawSurface7@@HH@Z ; __PutSpriteLock32
PUBLIC	?__PutImageEx@@YAXPAUIDirectDrawSurface7@@HH@Z	; __PutImageEx
PUBLIC	?__PutSpriteEx@@YAXPAUIDirectDrawSurface7@@HH@Z	; __PutSpriteEx
PUBLIC	?__PutSpriteLockFast16@@YAXPAUIDirectDrawSurface7@@HH@Z ; __PutSpriteLockFast16
PUBLIC	?__PutSpriteLockFastEx16@@YAXPAUIDirectDrawSurface7@@HH@Z ; __PutSpriteLockFastEx16
PUBLIC	?__DDSSetColorKeyEx@@YAHPAUIDirectDrawSurface7@@KK@Z ; __DDSSetColorKeyEx
PUBLIC	?__GetClipRect@@YAHHHHHPAUtagRECT@@0@Z		; __GetClipRect
PUBLIC	?__CreateFastVBuffer@@YAHKKK@Z			; __CreateFastVBuffer
PUBLIC	?__CreateFastSBuffer@@YAHKKK@Z			; __CreateFastSBuffer
PUBLIC	?__CreateFastSBuffer2@@YAHKKK@Z			; __CreateFastSBuffer2
PUBLIC	?__PutSpriteCk@@YAXPAUIDirectDrawSurface7@@HH@Z	; __PutSpriteCk
PUBLIC	?__PutSpriteLockFastCkEx16@@YAXPAUIDirectDrawSurface7@@HHK@Z ; __PutSpriteLockFastCkEx16
PUBLIC	?DXW_LUTInit@@YAXXZ				; DXW_LUTInit
PUBLIC	?__FxFadeIn@@YAXPAUIDirectDrawSurface7@@0K@Z	; __FxFadeIn
PUBLIC	?__FxFadeOut@@YAXPAUIDirectDrawSurface7@@0K@Z	; __FxFadeOut
PUBLIC	?__FxFadeInOutEx@@YAXPAUIDirectDrawSurface7@@0K@Z ; __FxFadeInOutEx
PUBLIC	?__FxFadeTo@@YAXPAUIDirectDrawSurface7@@0KKK@Z	; __FxFadeTo
PUBLIC	?__FxGrayScale@@YAXPAUIDirectDrawSurface7@@0@Z	; __FxGrayScale
PUBLIC	?__FxColorize@@YAXPAUIDirectDrawSurface7@@0KKK@Z ; __FxColorize
PUBLIC	?_ChangeDisplayMode@@YAHKKG@Z			; _ChangeDisplayMode
PUBLIC	?__Init@@YAHPAUHINSTANCE__@@H@Z			; __Init
PUBLIC	?_OptionsStorage@?1??__local_stdio_printf_options@@9@4_KA ; `__local_stdio_printf_options'::`2'::_OptionsStorage
PUBLIC	?gFpsMng@@3VCFpsMng@@A				; gFpsMng
PUBLIC	?m_HHSound@@3VCHHSound@@A			; m_HHSound
PUBLIC	?P1HP@@3HA					; P1HP
PUBLIC	?P2HP@@3HA					; P2HP
PUBLIC	?P3HP@@3HA					; P3HP
PUBLIC	?PlayerHP@@3HA					; PlayerHP
PUBLIC	??_C@_08ICEDOJGP@DxWFrame@			; `string'
PUBLIC	??_C@_0BG@JAJIBLHA@music?1Diffraction?4wav@	; `string'
PUBLIC	??_C@_0BF@IOJJCNGD@music?1MirrorCage?4wav@	; `string'
PUBLIC	??_C@_0BE@PCCFIAPH@music?1BloodCage?4wav@	; `string'
PUBLIC	??_C@_0BF@PLJGCCMO@sound?1RagingBlow?4wav@	; `string'
PUBLIC	??_C@_0BB@OGFBJJAC@sound?1Charge?4wav@		; `string'
PUBLIC	??_C@_0BG@LFOPIDOF@sound?1Worldreaver?4wav@	; `string'
PUBLIC	??_C@_0BJ@DDLHJIFA@sound?1WorldreaverHit?4wav@	; `string'
PUBLIC	??_C@_0P@MIMHEJLI@image?1Hero?4bmp@		; `string'
PUBLIC	??_C@_0P@MPHNJBIF@image?1Hole?4bmp@		; `string'
PUBLIC	??_C@_0BG@MCGLLKNE@image?1SkillButton?4bmp@	; `string'
PUBLIC	??_C@_0BE@EFMCEHEN@image?1SkillCool?4bmp@	; `string'
PUBLIC	??_C@_0BA@IIOEGDCI@image?1Cast3?4bmp@		; `string'
PUBLIC	??_C@_0BA@JFOBFDJA@image?1Cast4?4bmp@		; `string'
PUBLIC	??_C@_0BF@LBHFHDLC@image?1CastAttack?4bmp@	; `string'
PUBLIC	??_C@_0BM@EFMPOJLK@image?1BossAttackMotionL?4bmp@ ; `string'
PUBLIC	??_C@_0BM@HMBDIKFB@image?1BossAttackMotionR?4bmp@ ; `string'
PUBLIC	??_C@_0BH@PDGBKHPO@image?1BossAttack2R?4bmp@	; `string'
PUBLIC	??_C@_0BH@MKLNMEBF@image?1BossAttack2L?4bmp@	; `string'
PUBLIC	??_C@_0BG@MIHCLFFG@image?1Worldreaver?4bmp@	; `string'
PUBLIC	??_C@_0BH@BGEGJJDF@image?1Boss3AttackL?4bmp@	; `string'
PUBLIC	??_C@_0BH@CPJKPKNO@image?1Boss3AttackR?4bmp@	; `string'
PUBLIC	??_C@_0BJ@OPEOHJGM@image?1Boss3Attack33L?4bmp@	; `string'
PUBLIC	??_C@_0BJ@NGJCBKIH@image?1Boss3Attack33R?4bmp@	; `string'
PUBLIC	??_C@_0BH@OOONBDHA@image?1GroundAttack?4bmp@	; `string'
PUBLIC	??_C@_0BB@IGNNDELJ@image?1HeroRR?4bmp@		; `string'
PUBLIC	??_C@_0BD@JDMLGABL@image?1BossAtt2?4bmp@	; `string'
PUBLIC	??_C@_0BD@FIJHLDLO@image?1BossAtt3?4bmp@	; `string'
PUBLIC	??_C@_0BE@CJOBCKBE@image?1BossStand?4bmp@	; `string'
PUBLIC	??_C@_0BF@JILCBECG@image?1BossStandR?4bmp@	; `string'
PUBLIC	??_C@_0BB@MBFJKOFI@image?1BossHP?4bmp@		; `string'
PUBLIC	??_C@_0BB@MBNFNPOD@image?1Charge?4bmp@		; `string'
PUBLIC	??_C@_0BC@LLIDEHGM@image?1ChargeR?4bmp@		; `string'
PUBLIC	??_C@_0BE@IEPKBFCI@image?1BossHPbar?4bmp@	; `string'
PUBLIC	??_C@_0BD@OCDLPHOG@image?1PlayerHP?4bmp@	; `string'
PUBLIC	??_C@_0BG@IDPPCAHI@image?1PlayerHPbar?4bmp@	; `string'
PUBLIC	??_C@_0BF@GICFCKM@image?1RagingBlow?4bmp@	; `string'
PUBLIC	??_C@_0BG@FNCHEMOA@image?1RagingBlowR?4bmp@	; `string'
PUBLIC	??_C@_0BG@KKLAIKPC@image?1Boss3StandL?4bmp@	; `string'
PUBLIC	??_C@_0BG@JDGMOJBJ@image?1Boss3StandR?4bmp@	; `string'
PUBLIC	??_C@_0BC@LDOKHLD@image?1BossHit?4bmp@		; `string'
PUBLIC	??_C@_0BE@CHMEFLGB@image?1PlayerHit?4bmp@	; `string'
PUBLIC	??_C@_0EE@LHDKHKAN@c?3?2users?2administrator?2desktop?2@ ; `string'
PUBLIC	??_C@_0BD@CJHDELKA@?$LP?$MA?G?A?$LN?$LK?E?$KJ?$LI?$LA?$LL?$PN?$LM?$LK?$LN?G?F?P@ ; `string'
PUBLIC	??_C@_0BA@HCGNGLPL@image?1Title?4bmp@		; `string'
PUBLIC	??_C@_0O@MJENNBBN@image?1MI1?4bmp@		; `string'
PUBLIC	??_C@_0O@EPNJKDLD@image?1MI2?4bmp@		; `string'
PUBLIC	??_C@_0O@IEIFHABG@image?1MI3?4bmp@		; `string'
PUBLIC	??_C@_0BD@PFPDFPIN@image?1GameOver?4bmp@	; `string'
PUBLIC	??_C@_0O@EMPBFEPO@image?1End?4bmp@		; `string'
PUBLIC	??_C@_0M@DJJLNBDH@bahnschrift@			; `string'
PUBLIC	??_C@_0M@JLGAMLOF@P3PAT?5?$CFd?1?$CFd@		; `string'
PUBLIC	??_C@_06KJFAFILI@FPS?5?$CFd@			; `string'
PUBLIC	??_C@_05LCKIIOJE@?$CFd?1?$CFd@			; `string'
PUBLIC	??_C@_02JDPG@rb@				; `string'
PUBLIC	??_C@_0L@EKKCFCMM@_DDLoadBin@			; `string'
PUBLIC	___isa_available_default
PUBLIC	__xmm@00000000000000010000000000000001
PUBLIC	__xmm@00000001000000000000000100000000
PUBLIC	__xmm@00000001000000010000000000000000
PUBLIC	__xmm@00000003000000020000000100000000
PUBLIC	__xmm@000002bc00000073000000c800000023
PUBLIC	__xmm@000002bc0000014f000000c8000000ff
PUBLIC	__xmm@000002bc0000022b000000c8000001db
PUBLIC	__xmm@000002bc00000307000000c8000002b7
PUBLIC	__xmm@000002bc000003e3000000c800000393
PUBLIC	__xmm@41f00000000000000000000000000000
PUBLIC	__xmm@51eb851f51eb851f51eb851f51eb851f
EXTRN	_atexit:PROC
EXTRN	__imp__GetCurrentProcess@0:PROC
EXTRN	__imp__SetPriorityClass@8:PROC
EXTRN	__imp__CreateFontA@56:PROC
EXTRN	__imp__DeleteObject@4:PROC
EXTRN	__imp__GetDeviceCaps@8:PROC
EXTRN	__imp__SelectObject@8:PROC
EXTRN	__imp__SetBkMode@8:PROC
EXTRN	__imp__SetTextColor@8:PROC
EXTRN	__imp__TextOutA@20:PROC
EXTRN	__imp__GetMessageA@16:PROC
EXTRN	__imp__TranslateMessage@4:PROC
EXTRN	__imp__DispatchMessageA@4:PROC
EXTRN	__imp__PeekMessageA@20:PROC
EXTRN	__imp__PostMessageA@16:PROC
EXTRN	__imp__WaitMessage@0:PROC
EXTRN	__imp__DefWindowProcA@16:PROC
EXTRN	__imp__PostQuitMessage@4:PROC
EXTRN	__imp__RegisterClassA@4:PROC
EXTRN	__imp__CreateWindowExA@48:PROC
EXTRN	__imp__ShowWindow@8:PROC
EXTRN	__imp__GetKeyState@4:PROC
EXTRN	__imp__UpdateWindow@4:PROC
EXTRN	__imp__GetDC@4:PROC
EXTRN	__imp__ReleaseDC@8:PROC
EXTRN	__imp__GetClientRect@8:PROC
EXTRN	__imp__SetCursor@4:PROC
EXTRN	__imp__ClientToScreen@8:PROC
EXTRN	__imp__SetRect@20:PROC
EXTRN	__imp__IntersectRect@12:PROC
EXTRN	__imp__OffsetRect@12:PROC
EXTRN	__imp__LoadCursorA@8:PROC
EXTRN	__imp__LoadIconA@8:PROC
EXTRN	__imp__ChangeDisplaySettingsA@8:PROC
EXTRN	_free:PROC
EXTRN	_malloc:PROC
EXTRN	_srand:PROC
EXTRN	_rand:PROC
EXTRN	_fclose:PROC
EXTRN	_fopen:PROC
EXTRN	_fread:PROC
EXTRN	___stdio_common_vsprintf:PROC
EXTRN	__time64:PROC
EXTRN	_DirectDrawCreate@12:PROC
EXTRN	_DirectDrawCreateEx@16:PROC
EXTRN	_DirectDrawCreateClipper@12:PROC
EXTRN	?___Error@@YAHPAD0H@Z:PROC			; ___Error
EXTRN	?___DDError@@YAHJPADH@Z:PROC			; ___DDError
EXTRN	_DDLoadBitmap:PROC
EXTRN	_DDColorMatch:PROC
EXTRN	_DDSetColorKey:PROC
EXTRN	??0CFpsMng@@QAE@XZ:PROC				; CFpsMng::CFpsMng
EXTRN	??1CFpsMng@@UAE@XZ:PROC				; CFpsMng::~CFpsMng
EXTRN	?SetFPS@CFpsMng@@QAEXK@Z:PROC			; CFpsMng::SetFPS
EXTRN	?GetFPS@CFpsMng@@QAEKXZ:PROC			; CFpsMng::GetFPS
EXTRN	?FrameTuningEx@CFpsMng@@QAEXXZ:PROC		; CFpsMng::FrameTuningEx
EXTRN	?Init@CHHSound@@QAEXPAUHWND__@@@Z:PROC		; CHHSound::Init
EXTRN	?LoadWave@CHHSound@@QAE_NPADPAPAUIDirectSoundBuffer@@@Z:PROC ; CHHSound::LoadWave
EXTRN	?Play@CHHSound@@QAEXPAUIDirectSoundBuffer@@_N@Z:PROC ; CHHSound::Play
EXTRN	?Stop@CHHSound@@QAEXPAUIDirectSoundBuffer@@@Z:PROC ; CHHSound::Stop
EXTRN	?SetVolume@CHHSound@@QAEXPAUIDirectSoundBuffer@@J@Z:PROC ; CHHSound::SetVolume
EXTRN	??0CHHSound@@QAE@XZ:PROC			; CHHSound::CHHSound
EXTRN	??1CHHSound@@QAE@XZ:PROC			; CHHSound::~CHHSound
EXTRN	@__security_check_cookie@4:PROC
EXTRN	_memcpy:PROC
EXTRN	_memset:PROC
EXTRN	_IID_IDirectDraw7:BYTE
EXTRN	?hWnd@@3PAUHWND__@@A:DWORD			; hWnd
EXTRN	___isa_available:DWORD
EXTRN	___security_cookie:DWORD
EXTRN	__fltused:DWORD
;	COMDAT ?_OptionsStorage@?1??__local_stdio_printf_options@@9@4_KA
_BSS	SEGMENT
?_OptionsStorage@?1??__local_stdio_printf_options@@9@4_KA DQ 01H DUP (?) ; `__local_stdio_printf_options'::`2'::_OptionsStorage
_BSS	ENDS
_BSS	SEGMENT
?gFpsMng@@3VCFpsMng@@A DB 038H DUP (?)			; gFpsMng
?m_HHSound@@3VCHHSound@@A DD 01H DUP (?)		; m_HHSound
?P1HP@@3HA DD	01H DUP (?)				; P1HP
?P2HP@@3HA DD	01H DUP (?)				; P2HP
?P3HP@@3HA DD	01H DUP (?)				; P3HP
?PlayerHP@@3HA DD 01H DUP (?)				; PlayerHP
_BSS	ENDS
;	COMDAT ?bIsFpsMax@?1??__WinKeyDown@@YAXPAUHWND__@@I@Z@4HA
_BSS	SEGMENT
?bIsFpsMax@?1??__WinKeyDown@@YAXPAUHWND__@@I@Z@4HA DD 01H DUP (?) ; `__WinKeyDown'::`2'::bIsFpsMax
_BSS	ENDS
;	COMDAT ___isa_available_default
_BSS	SEGMENT
___isa_available_default DD 01H DUP (?)
_BSS	ENDS
CRT$XCU	SEGMENT
?gFpsMng$initializer$@@3P6AXXZA DD FLAT:??__EgFpsMng@@YAXXZ ; gFpsMng$initializer$
CRT$XCU	ENDS
;	COMDAT __xmm@51eb851f51eb851f51eb851f51eb851f
CONST	SEGMENT
__xmm@51eb851f51eb851f51eb851f51eb851f DB 01fH, 085H, 0ebH, 'Q', 01fH, 085H
	DB	0ebH, 'Q', 01fH, 085H, 0ebH, 'Q', 01fH, 085H, 0ebH, 'Q'
CONST	ENDS
;	COMDAT __xmm@41f00000000000000000000000000000
CONST	SEGMENT
__xmm@41f00000000000000000000000000000 DB 00H, 00H, 00H, 00H, 00H, 00H, 00H
	DB	00H, 00H, 00H, 00H, 00H, 00H, 00H, 0f0H, 'A'
CONST	ENDS
;	COMDAT __xmm@000002bc000003e3000000c800000393
CONST	SEGMENT
__xmm@000002bc000003e3000000c800000393 DB 093H, 03H, 00H, 00H, 0c8H, 00H, 00H
	DB	00H, 0e3H, 03H, 00H, 00H, 0bcH, 02H, 00H, 00H
CONST	ENDS
;	COMDAT __xmm@000002bc00000307000000c8000002b7
CONST	SEGMENT
__xmm@000002bc00000307000000c8000002b7 DB 0b7H, 02H, 00H, 00H, 0c8H, 00H, 00H
	DB	00H, 07H, 03H, 00H, 00H, 0bcH, 02H, 00H, 00H
CONST	ENDS
;	COMDAT __xmm@000002bc0000022b000000c8000001db
CONST	SEGMENT
__xmm@000002bc0000022b000000c8000001db DB 0dbH, 01H, 00H, 00H, 0c8H, 00H, 00H
	DB	00H, '+', 02H, 00H, 00H, 0bcH, 02H, 00H, 00H
CONST	ENDS
;	COMDAT __xmm@000002bc0000014f000000c8000000ff
CONST	SEGMENT
__xmm@000002bc0000014f000000c8000000ff DB 0ffH, 00H, 00H, 00H, 0c8H, 00H, 00H
	DB	00H, 'O', 01H, 00H, 00H, 0bcH, 02H, 00H, 00H
CONST	ENDS
;	COMDAT __xmm@000002bc00000073000000c800000023
CONST	SEGMENT
__xmm@000002bc00000073000000c800000023 DB '#', 00H, 00H, 00H, 0c8H, 00H, 00H
	DB	00H, 's', 00H, 00H, 00H, 0bcH, 02H, 00H, 00H
CONST	ENDS
;	COMDAT __xmm@00000003000000020000000100000000
CONST	SEGMENT
__xmm@00000003000000020000000100000000 DB 00H, 00H, 00H, 00H, 01H, 00H, 00H
	DB	00H, 02H, 00H, 00H, 00H, 03H, 00H, 00H, 00H
CONST	ENDS
;	COMDAT __xmm@00000001000000010000000000000000
CONST	SEGMENT
__xmm@00000001000000010000000000000000 DB 00H, 00H, 00H, 00H, 00H, 00H, 00H
	DB	00H, 01H, 00H, 00H, 00H, 01H, 00H, 00H, 00H
CONST	ENDS
;	COMDAT __xmm@00000001000000000000000100000000
CONST	SEGMENT
__xmm@00000001000000000000000100000000 DB 00H, 00H, 00H, 00H, 01H, 00H, 00H
	DB	00H, 00H, 00H, 00H, 00H, 01H, 00H, 00H, 00H
CONST	ENDS
;	COMDAT __xmm@00000000000000010000000000000001
CONST	SEGMENT
__xmm@00000000000000010000000000000001 DB 01H, 00H, 00H, 00H, 00H, 00H, 00H
	DB	00H, 01H, 00H, 00H, 00H, 00H, 00H, 00H, 00H
CONST	ENDS
;	COMDAT ??_C@_0L@EKKCFCMM@_DDLoadBin@
CONST	SEGMENT
??_C@_0L@EKKCFCMM@_DDLoadBin@ DB '_DDLoadBin', 00H	; `string'
CONST	ENDS
;	COMDAT ??_C@_02JDPG@rb@
CONST	SEGMENT
??_C@_02JDPG@rb@ DB 'rb', 00H				; `string'
CONST	ENDS
;	COMDAT ??_C@_05LCKIIOJE@?$CFd?1?$CFd@
CONST	SEGMENT
??_C@_05LCKIIOJE@?$CFd?1?$CFd@ DB '%d/%d', 00H		; `string'
CONST	ENDS
;	COMDAT ??_C@_06KJFAFILI@FPS?5?$CFd@
CONST	SEGMENT
??_C@_06KJFAFILI@FPS?5?$CFd@ DB 'FPS %d', 00H		; `string'
CONST	ENDS
;	COMDAT ??_C@_0M@JLGAMLOF@P3PAT?5?$CFd?1?$CFd@
CONST	SEGMENT
??_C@_0M@JLGAMLOF@P3PAT?5?$CFd?1?$CFd@ DB 'P3PAT %d/%d', 00H ; `string'
CONST	ENDS
;	COMDAT ??_C@_0M@DJJLNBDH@bahnschrift@
CONST	SEGMENT
??_C@_0M@DJJLNBDH@bahnschrift@ DB 'bahnschrift', 00H	; `string'
CONST	ENDS
;	COMDAT ??_C@_0O@EMPBFEPO@image?1End?4bmp@
CONST	SEGMENT
??_C@_0O@EMPBFEPO@image?1End?4bmp@ DB 'image/End.bmp', 00H ; `string'
CONST	ENDS
;	COMDAT ??_C@_0BD@PFPDFPIN@image?1GameOver?4bmp@
CONST	SEGMENT
??_C@_0BD@PFPDFPIN@image?1GameOver?4bmp@ DB 'image/GameOver.bmp', 00H ; `string'
CONST	ENDS
;	COMDAT ??_C@_0O@IEIFHABG@image?1MI3?4bmp@
CONST	SEGMENT
??_C@_0O@IEIFHABG@image?1MI3?4bmp@ DB 'image/MI3.bmp', 00H ; `string'
CONST	ENDS
;	COMDAT ??_C@_0O@EPNJKDLD@image?1MI2?4bmp@
CONST	SEGMENT
??_C@_0O@EPNJKDLD@image?1MI2?4bmp@ DB 'image/MI2.bmp', 00H ; `string'
CONST	ENDS
;	COMDAT ??_C@_0O@MJENNBBN@image?1MI1?4bmp@
CONST	SEGMENT
??_C@_0O@MJENNBBN@image?1MI1?4bmp@ DB 'image/MI1.bmp', 00H ; `string'
CONST	ENDS
;	COMDAT ??_C@_0BA@HCGNGLPL@image?1Title?4bmp@
CONST	SEGMENT
??_C@_0BA@HCGNGLPL@image?1Title?4bmp@ DB 'image/Title.bmp', 00H ; `string'
CONST	ENDS
;	COMDAT ??_C@_0BD@CJHDELKA@?$LP?$MA?G?A?$LN?$LK?E?$KJ?$LI?$LA?$LL?$PN?$LM?$LK?$LN?G?F?P@
CONST	SEGMENT
??_C@_0BD@CJHDELKA@?$LP?$MA?G?A?$LN?$LK?E?$KJ?$LI?$LA?$LL?$PN?$LM?$LK?$LN?G?F?P@ DB 0bfH
	DB	0c0H, 0c7H, 0c1H, 0bdH, 0baH, 0c5H, 0a9H, 0b8H, 0b0H, 0bbH, 0fdH
	DB	0bcH, 0baH, 0bdH, 0c7H, 0c6H, 0d0H, 00H	; `string'
CONST	ENDS
;	COMDAT ??_C@_0EE@LHDKHKAN@c?3?2users?2administrator?2desktop?2@
CONST	SEGMENT
??_C@_0EE@LHDKHKAN@c?3?2users?2administrator?2desktop?2@ DB 'c:\users\adm'
	DB	'inistrator\desktop\', 0b1H, 0e8H, 0c1H, 0f6H, 0c8H, 0c6H, ' -'
	DB	' ', 0b9H, 0ccH, 0b7H, 0afH, 0bfH, 0f9H, 0b5H, 0e5H, '\1.src\d'
	DB	'xwframe.cpp', 00H				; `string'
CONST	ENDS
;	COMDAT ??_C@_0BE@CHMEFLGB@image?1PlayerHit?4bmp@
CONST	SEGMENT
??_C@_0BE@CHMEFLGB@image?1PlayerHit?4bmp@ DB 'image/PlayerHit.bmp', 00H ; `string'
CONST	ENDS
;	COMDAT ??_C@_0BC@LDOKHLD@image?1BossHit?4bmp@
CONST	SEGMENT
??_C@_0BC@LDOKHLD@image?1BossHit?4bmp@ DB 'image/BossHit.bmp', 00H ; `string'
CONST	ENDS
;	COMDAT ??_C@_0BG@JDGMOJBJ@image?1Boss3StandR?4bmp@
CONST	SEGMENT
??_C@_0BG@JDGMOJBJ@image?1Boss3StandR?4bmp@ DB 'image/Boss3StandR.bmp', 00H ; `string'
CONST	ENDS
;	COMDAT ??_C@_0BG@KKLAIKPC@image?1Boss3StandL?4bmp@
CONST	SEGMENT
??_C@_0BG@KKLAIKPC@image?1Boss3StandL?4bmp@ DB 'image/Boss3StandL.bmp', 00H ; `string'
CONST	ENDS
;	COMDAT ??_C@_0BG@FNCHEMOA@image?1RagingBlowR?4bmp@
CONST	SEGMENT
??_C@_0BG@FNCHEMOA@image?1RagingBlowR?4bmp@ DB 'image/RagingBlowR.bmp', 00H ; `string'
CONST	ENDS
;	COMDAT ??_C@_0BF@GICFCKM@image?1RagingBlow?4bmp@
CONST	SEGMENT
??_C@_0BF@GICFCKM@image?1RagingBlow?4bmp@ DB 'image/RagingBlow.bmp', 00H ; `string'
CONST	ENDS
;	COMDAT ??_C@_0BG@IDPPCAHI@image?1PlayerHPbar?4bmp@
CONST	SEGMENT
??_C@_0BG@IDPPCAHI@image?1PlayerHPbar?4bmp@ DB 'image/PlayerHPbar.bmp', 00H ; `string'
CONST	ENDS
;	COMDAT ??_C@_0BD@OCDLPHOG@image?1PlayerHP?4bmp@
CONST	SEGMENT
??_C@_0BD@OCDLPHOG@image?1PlayerHP?4bmp@ DB 'image/PlayerHP.bmp', 00H ; `string'
CONST	ENDS
;	COMDAT ??_C@_0BE@IEPKBFCI@image?1BossHPbar?4bmp@
CONST	SEGMENT
??_C@_0BE@IEPKBFCI@image?1BossHPbar?4bmp@ DB 'image/BossHPbar.bmp', 00H ; `string'
CONST	ENDS
;	COMDAT ??_C@_0BC@LLIDEHGM@image?1ChargeR?4bmp@
CONST	SEGMENT
??_C@_0BC@LLIDEHGM@image?1ChargeR?4bmp@ DB 'image/ChargeR.bmp', 00H ; `string'
CONST	ENDS
;	COMDAT ??_C@_0BB@MBNFNPOD@image?1Charge?4bmp@
CONST	SEGMENT
??_C@_0BB@MBNFNPOD@image?1Charge?4bmp@ DB 'image/Charge.bmp', 00H ; `string'
CONST	ENDS
;	COMDAT ??_C@_0BB@MBFJKOFI@image?1BossHP?4bmp@
CONST	SEGMENT
??_C@_0BB@MBFJKOFI@image?1BossHP?4bmp@ DB 'image/BossHP.bmp', 00H ; `string'
CONST	ENDS
;	COMDAT ??_C@_0BF@JILCBECG@image?1BossStandR?4bmp@
CONST	SEGMENT
??_C@_0BF@JILCBECG@image?1BossStandR?4bmp@ DB 'image/BossStandR.bmp', 00H ; `string'
CONST	ENDS
;	COMDAT ??_C@_0BE@CJOBCKBE@image?1BossStand?4bmp@
CONST	SEGMENT
??_C@_0BE@CJOBCKBE@image?1BossStand?4bmp@ DB 'image/BossStand.bmp', 00H ; `string'
CONST	ENDS
;	COMDAT ??_C@_0BD@FIJHLDLO@image?1BossAtt3?4bmp@
CONST	SEGMENT
??_C@_0BD@FIJHLDLO@image?1BossAtt3?4bmp@ DB 'image/BossAtt3.bmp', 00H ; `string'
CONST	ENDS
;	COMDAT ??_C@_0BD@JDMLGABL@image?1BossAtt2?4bmp@
CONST	SEGMENT
??_C@_0BD@JDMLGABL@image?1BossAtt2?4bmp@ DB 'image/BossAtt2.bmp', 00H ; `string'
CONST	ENDS
;	COMDAT ??_C@_0BB@IGNNDELJ@image?1HeroRR?4bmp@
CONST	SEGMENT
??_C@_0BB@IGNNDELJ@image?1HeroRR?4bmp@ DB 'image/HeroRR.bmp', 00H ; `string'
CONST	ENDS
;	COMDAT ??_C@_0BH@OOONBDHA@image?1GroundAttack?4bmp@
CONST	SEGMENT
??_C@_0BH@OOONBDHA@image?1GroundAttack?4bmp@ DB 'image/GroundAttack.bmp', 00H ; `string'
CONST	ENDS
;	COMDAT ??_C@_0BJ@NGJCBKIH@image?1Boss3Attack33R?4bmp@
CONST	SEGMENT
??_C@_0BJ@NGJCBKIH@image?1Boss3Attack33R?4bmp@ DB 'image/Boss3Attack33R.b'
	DB	'mp', 00H					; `string'
CONST	ENDS
;	COMDAT ??_C@_0BJ@OPEOHJGM@image?1Boss3Attack33L?4bmp@
CONST	SEGMENT
??_C@_0BJ@OPEOHJGM@image?1Boss3Attack33L?4bmp@ DB 'image/Boss3Attack33L.b'
	DB	'mp', 00H					; `string'
CONST	ENDS
;	COMDAT ??_C@_0BH@CPJKPKNO@image?1Boss3AttackR?4bmp@
CONST	SEGMENT
??_C@_0BH@CPJKPKNO@image?1Boss3AttackR?4bmp@ DB 'image/Boss3AttackR.bmp', 00H ; `string'
CONST	ENDS
;	COMDAT ??_C@_0BH@BGEGJJDF@image?1Boss3AttackL?4bmp@
CONST	SEGMENT
??_C@_0BH@BGEGJJDF@image?1Boss3AttackL?4bmp@ DB 'image/Boss3AttackL.bmp', 00H ; `string'
CONST	ENDS
;	COMDAT ??_C@_0BG@MIHCLFFG@image?1Worldreaver?4bmp@
CONST	SEGMENT
??_C@_0BG@MIHCLFFG@image?1Worldreaver?4bmp@ DB 'image/Worldreaver.bmp', 00H ; `string'
CONST	ENDS
;	COMDAT ??_C@_0BH@MKLNMEBF@image?1BossAttack2L?4bmp@
CONST	SEGMENT
??_C@_0BH@MKLNMEBF@image?1BossAttack2L?4bmp@ DB 'image/BossAttack2L.bmp', 00H ; `string'
CONST	ENDS
;	COMDAT ??_C@_0BH@PDGBKHPO@image?1BossAttack2R?4bmp@
CONST	SEGMENT
??_C@_0BH@PDGBKHPO@image?1BossAttack2R?4bmp@ DB 'image/BossAttack2R.bmp', 00H ; `string'
CONST	ENDS
;	COMDAT ??_C@_0BM@HMBDIKFB@image?1BossAttackMotionR?4bmp@
CONST	SEGMENT
??_C@_0BM@HMBDIKFB@image?1BossAttackMotionR?4bmp@ DB 'image/BossAttackMot'
	DB	'ionR.bmp', 00H				; `string'
CONST	ENDS
;	COMDAT ??_C@_0BM@EFMPOJLK@image?1BossAttackMotionL?4bmp@
CONST	SEGMENT
??_C@_0BM@EFMPOJLK@image?1BossAttackMotionL?4bmp@ DB 'image/BossAttackMot'
	DB	'ionL.bmp', 00H				; `string'
CONST	ENDS
;	COMDAT ??_C@_0BF@LBHFHDLC@image?1CastAttack?4bmp@
CONST	SEGMENT
??_C@_0BF@LBHFHDLC@image?1CastAttack?4bmp@ DB 'image/CastAttack.bmp', 00H ; `string'
CONST	ENDS
;	COMDAT ??_C@_0BA@JFOBFDJA@image?1Cast4?4bmp@
CONST	SEGMENT
??_C@_0BA@JFOBFDJA@image?1Cast4?4bmp@ DB 'image/Cast4.bmp', 00H ; `string'
CONST	ENDS
;	COMDAT ??_C@_0BA@IIOEGDCI@image?1Cast3?4bmp@
CONST	SEGMENT
??_C@_0BA@IIOEGDCI@image?1Cast3?4bmp@ DB 'image/Cast3.bmp', 00H ; `string'
CONST	ENDS
;	COMDAT ??_C@_0BE@EFMCEHEN@image?1SkillCool?4bmp@
CONST	SEGMENT
??_C@_0BE@EFMCEHEN@image?1SkillCool?4bmp@ DB 'image/SkillCool.bmp', 00H ; `string'
CONST	ENDS
;	COMDAT ??_C@_0BG@MCGLLKNE@image?1SkillButton?4bmp@
CONST	SEGMENT
??_C@_0BG@MCGLLKNE@image?1SkillButton?4bmp@ DB 'image/SkillButton.bmp', 00H ; `string'
CONST	ENDS
;	COMDAT ??_C@_0P@MPHNJBIF@image?1Hole?4bmp@
CONST	SEGMENT
??_C@_0P@MPHNJBIF@image?1Hole?4bmp@ DB 'image/Hole.bmp', 00H ; `string'
CONST	ENDS
;	COMDAT ??_C@_0P@MIMHEJLI@image?1Hero?4bmp@
CONST	SEGMENT
??_C@_0P@MIMHEJLI@image?1Hero?4bmp@ DB 'image/Hero.bmp', 00H ; `string'
CONST	ENDS
;	COMDAT ??_C@_0BJ@DDLHJIFA@sound?1WorldreaverHit?4wav@
CONST	SEGMENT
??_C@_0BJ@DDLHJIFA@sound?1WorldreaverHit?4wav@ DB 'sound/WorldreaverHit.w'
	DB	'av', 00H					; `string'
CONST	ENDS
;	COMDAT ??_C@_0BG@LFOPIDOF@sound?1Worldreaver?4wav@
CONST	SEGMENT
??_C@_0BG@LFOPIDOF@sound?1Worldreaver?4wav@ DB 'sound/Worldreaver.wav', 00H ; `string'
CONST	ENDS
;	COMDAT ??_C@_0BB@OGFBJJAC@sound?1Charge?4wav@
CONST	SEGMENT
??_C@_0BB@OGFBJJAC@sound?1Charge?4wav@ DB 'sound/Charge.wav', 00H ; `string'
CONST	ENDS
;	COMDAT ??_C@_0BF@PLJGCCMO@sound?1RagingBlow?4wav@
CONST	SEGMENT
??_C@_0BF@PLJGCCMO@sound?1RagingBlow?4wav@ DB 'sound/RagingBlow.wav', 00H ; `string'
CONST	ENDS
;	COMDAT ??_C@_0BE@PCCFIAPH@music?1BloodCage?4wav@
CONST	SEGMENT
??_C@_0BE@PCCFIAPH@music?1BloodCage?4wav@ DB 'music/BloodCage.wav', 00H ; `string'
CONST	ENDS
;	COMDAT ??_C@_0BF@IOJJCNGD@music?1MirrorCage?4wav@
CONST	SEGMENT
??_C@_0BF@IOJJCNGD@music?1MirrorCage?4wav@ DB 'music/MirrorCage.wav', 00H ; `string'
CONST	ENDS
;	COMDAT ??_C@_0BG@JAJIBLHA@music?1Diffraction?4wav@
CONST	SEGMENT
??_C@_0BG@JAJIBLHA@music?1Diffraction?4wav@ DB 'music/Diffraction.wav', 00H ; `string'
CONST	ENDS
;	COMDAT ??_C@_08ICEDOJGP@DxWFrame@
CONST	SEGMENT
??_C@_08ICEDOJGP@DxWFrame@ DB 'DxWFrame', 00H		; `string'
CONST	ENDS
CRT$XCU	SEGMENT
?m_HHSound$initializer$@@3P6AXXZA DD FLAT:??__Em_HHSound@@YAXXZ ; m_HHSound$initializer$
CRT$XCU	ENDS
CRT$XCU	SEGMENT
?P1HP$initializer$@@3P6AXXZA DD FLAT:??__EP1HP@@YAXXZ	; P1HP$initializer$
CRT$XCU	ENDS
CRT$XCU	SEGMENT
?P2HP$initializer$@@3P6AXXZA DD FLAT:??__EP2HP@@YAXXZ	; P2HP$initializer$
CRT$XCU	ENDS
CRT$XCU	SEGMENT
?P3HP$initializer$@@3P6AXXZA DD FLAT:??__EP3HP@@YAXXZ	; P3HP$initializer$
CRT$XCU	ENDS
CRT$XCU	SEGMENT
?PlayerHP$initializer$@@3P6AXXZA DD FLAT:??__EPlayerHP@@YAXXZ ; PlayerHP$initializer$
CRT$XCU	ENDS
; Function compile flags: /Ogtp
; File c:\users\administrator\desktop\김지훈 - 미러월드\1.src\dxwframe.cpp
;	COMDAT ?__Init@@YAHPAUHINSTANCE__@@H@Z
_TEXT	SEGMENT
_wc$ = -40						; size = 40
_hInstance$ = 8						; size = 4
_nCmdShow$ = 12						; size = 4
?__Init@@YAHPAUHINSTANCE__@@H@Z PROC			; __Init, COMDAT

; 237  : {

	push	ebp
	mov	ebp, esp
	sub	esp, 40					; 00000028H
	push	esi

; 238  : 	/////	
; 239  : 	gAppSet.bIsActive      = FALSE;
; 240  : 	gAppSet.bIsDisplayInfo = FALSE;
; 241  : 	gAppSet.bIsPause       = FALSE;	
; 242  : 	gAppSet.bIsRenderBlank = FALSE;
; 243  : 
; 244  :     /////
; 245  :     WNDCLASS  wc;
; 246  : 
; 247  :     wc.style = CS_HREDRAW | CS_VREDRAW;
; 248  :     wc.lpfnWndProc = __WndProc;
; 249  :     wc.cbClsExtra = 0;
; 250  :     wc.cbWndExtra = 0;
; 251  :     wc.hInstance = hInstance;

	mov	esi, DWORD PTR _hInstance$[ebp]

; 252  :     wc.hIcon = LoadIcon( hInstance, IDI_APPLICATION );

	push	32512					; 00007f00H
	push	esi
	mov	DWORD PTR ?gAppSet@@3UtagAPP_SET@@A+4, 0
	mov	DWORD PTR ?gAppSet@@3UtagAPP_SET@@A+8, 0
	mov	DWORD PTR ?gAppSet@@3UtagAPP_SET@@A, 0
	mov	DWORD PTR ?gAppSet@@3UtagAPP_SET@@A+12, 0
	mov	DWORD PTR _wc$[ebp], 3
	mov	DWORD PTR _wc$[ebp+4], OFFSET ?__WndProc@@YGJPAUHWND__@@IIJ@Z ; __WndProc
	mov	DWORD PTR _wc$[ebp+8], 0
	mov	DWORD PTR _wc$[ebp+12], 0
	mov	DWORD PTR _wc$[ebp+16], esi
	call	DWORD PTR __imp__LoadIconA@8

; 253  :     wc.hCursor = LoadCursor( NULL, IDC_ARROW );

	push	32512					; 00007f00H
	push	0
	mov	DWORD PTR _wc$[ebp+20], eax
	call	DWORD PTR __imp__LoadCursorA@8
	mov	DWORD PTR _wc$[ebp+24], eax

; 254  :     wc.hbrBackground = NULL;//GetStockObject(BLACK_BRUSH);
; 255  :     wc.lpszMenuName = NAME;
; 256  :     wc.lpszClassName = NAME;
; 257  :     RegisterClass( &wc );

	lea	eax, DWORD PTR _wc$[ebp]
	push	eax
	mov	DWORD PTR _wc$[ebp+28], 0
	mov	DWORD PTR _wc$[ebp+32], OFFSET ??_C@_08ICEDOJGP@DxWFrame@
	mov	DWORD PTR _wc$[ebp+36], OFFSET ??_C@_08ICEDOJGP@DxWFrame@
	call	DWORD PTR __imp__RegisterClassA@4

; 258  : 
; 259  :     DWORD ExWinStyle, WinStyle;
; 260  : 
; 261  :     #ifdef _DEBUG
; 262  :         ExWinStyle = NULL;
; 263  :         WinStyle = WS_POPUPWINDOW | WS_CAPTION;
; 264  :     #else
; 265  :         ExWinStyle = WS_EX_TOPMOST;
; 266  :         WinStyle = WS_POPUP;
; 267  :     #endif
; 268  : 
; 269  :     hWnd = CreateWindowEx(ExWinStyle,

	push	0
	push	esi
	push	0
	push	0
	push	793					; 00000319H
	push	1030					; 00000406H
	push	0
	push	0
	push	-2147483648				; 80000000H
	push	OFFSET ??_C@_08ICEDOJGP@DxWFrame@
	push	OFFSET ??_C@_08ICEDOJGP@DxWFrame@
	push	8
	call	DWORD PTR __imp__CreateWindowExA@48
	mov	DWORD PTR ?hWnd@@3PAUHWND__@@A, eax	; hWnd
	pop	esi

; 270  :                         NAME,
; 271  :                         TITLE,
; 272  :                         WinStyle,
; 273  :                         0,
; 274  :                         0,
; 275  :                         HRES + HEDGE,
; 276  :                         VRES + VEDGE,
; 277  :                         NULL,
; 278  :                         NULL,
; 279  :                         hInstance,
; 280  :                     	NULL);
; 281  : 
; 282  :     if( !hWnd )	return FALSE;

	test	eax, eax
	je	$LN5@Init

; 283  : 
; 284  :     ShowWindow( hWnd, nCmdShow );

	push	DWORD PTR _nCmdShow$[ebp]
	push	eax
	call	DWORD PTR __imp__ShowWindow@8

; 285  :     UpdateWindow( hWnd );

	push	DWORD PTR ?hWnd@@3PAUHWND__@@A		; hWnd
	call	DWORD PTR __imp__UpdateWindow@4

; 286  : 
; 287  :     /////
; 288  :     HANDLE hProc = ::GetCurrentProcess();

	call	DWORD PTR __imp__GetCurrentProcess@0

; 289  :     #ifdef _DEBUG
; 290  : 		::SetPriorityClass (hProc, NORMAL_PRIORITY_CLASS);
; 291  :     #else
; 292  : 		::SetPriorityClass (hProc, HIGH_PRIORITY_CLASS);

	push	128					; 00000080H
	push	eax
	call	DWORD PTR __imp__SetPriorityClass@8

; 293  :     #endif
; 294  : 		
; 295  : 	   m_HHSound.Init(hWnd);

	push	DWORD PTR ?hWnd@@3PAUHWND__@@A		; hWnd
	mov	ecx, OFFSET ?m_HHSound@@3VCHHSound@@A	; m_HHSound
	call	?Init@CHHSound@@QAEXPAUHWND__@@@Z	; CHHSound::Init

; 296  : 
; 297  : 		//사운드 초기화
; 298  : 		m_HHSound.LoadWave("music/Diffraction.wav", &g_pDS[0]);

	push	OFFSET ?g_pDS@@3PAPAUIDirectSoundBuffer@@A ; g_pDS
	push	OFFSET ??_C@_0BG@JAJIBLHA@music?1Diffraction?4wav@
	mov	ecx, OFFSET ?m_HHSound@@3VCHHSound@@A	; m_HHSound
	call	?LoadWave@CHHSound@@QAE_NPADPAPAUIDirectSoundBuffer@@@Z ; CHHSound::LoadWave

; 299  : 		m_HHSound.SetVolume(g_pDS[0], 100);

	push	100					; 00000064H
	push	DWORD PTR ?g_pDS@@3PAPAUIDirectSoundBuffer@@A
	mov	ecx, OFFSET ?m_HHSound@@3VCHHSound@@A	; m_HHSound
	call	?SetVolume@CHHSound@@QAEXPAUIDirectSoundBuffer@@J@Z ; CHHSound::SetVolume

; 300  : 
; 301  : 		m_HHSound.LoadWave("music/MirrorCage.wav", &g_pDS[1]);

	push	OFFSET ?g_pDS@@3PAPAUIDirectSoundBuffer@@A+4
	push	OFFSET ??_C@_0BF@IOJJCNGD@music?1MirrorCage?4wav@
	mov	ecx, OFFSET ?m_HHSound@@3VCHHSound@@A	; m_HHSound
	call	?LoadWave@CHHSound@@QAE_NPADPAPAUIDirectSoundBuffer@@@Z ; CHHSound::LoadWave

; 302  : 		m_HHSound.SetVolume(g_pDS[1], 100);

	push	100					; 00000064H
	push	DWORD PTR ?g_pDS@@3PAPAUIDirectSoundBuffer@@A+4
	mov	ecx, OFFSET ?m_HHSound@@3VCHHSound@@A	; m_HHSound
	call	?SetVolume@CHHSound@@QAEXPAUIDirectSoundBuffer@@J@Z ; CHHSound::SetVolume

; 303  : 
; 304  : 		m_HHSound.LoadWave("music/BloodCage.wav", &g_pDS[2]);

	push	OFFSET ?g_pDS@@3PAPAUIDirectSoundBuffer@@A+8
	push	OFFSET ??_C@_0BE@PCCFIAPH@music?1BloodCage?4wav@
	mov	ecx, OFFSET ?m_HHSound@@3VCHHSound@@A	; m_HHSound
	call	?LoadWave@CHHSound@@QAE_NPADPAPAUIDirectSoundBuffer@@@Z ; CHHSound::LoadWave

; 305  : 		m_HHSound.SetVolume(g_pDS[2], 100);

	push	100					; 00000064H
	push	DWORD PTR ?g_pDS@@3PAPAUIDirectSoundBuffer@@A+8
	mov	ecx, OFFSET ?m_HHSound@@3VCHHSound@@A	; m_HHSound
	call	?SetVolume@CHHSound@@QAEXPAUIDirectSoundBuffer@@J@Z ; CHHSound::SetVolume

; 306  : 
; 307  : 		m_HHSound.LoadWave("sound/RagingBlow.wav", &g_pDS[3]);

	push	OFFSET ?g_pDS@@3PAPAUIDirectSoundBuffer@@A+12
	push	OFFSET ??_C@_0BF@PLJGCCMO@sound?1RagingBlow?4wav@
	mov	ecx, OFFSET ?m_HHSound@@3VCHHSound@@A	; m_HHSound
	call	?LoadWave@CHHSound@@QAE_NPADPAPAUIDirectSoundBuffer@@@Z ; CHHSound::LoadWave

; 308  : 		m_HHSound.SetVolume(g_pDS[3], 100);

	push	100					; 00000064H
	push	DWORD PTR ?g_pDS@@3PAPAUIDirectSoundBuffer@@A+12
	mov	ecx, OFFSET ?m_HHSound@@3VCHHSound@@A	; m_HHSound
	call	?SetVolume@CHHSound@@QAEXPAUIDirectSoundBuffer@@J@Z ; CHHSound::SetVolume

; 309  : 
; 310  : 		m_HHSound.LoadWave("sound/Charge.wav", &g_pDS[4]);

	push	OFFSET ?g_pDS@@3PAPAUIDirectSoundBuffer@@A+16
	push	OFFSET ??_C@_0BB@OGFBJJAC@sound?1Charge?4wav@
	mov	ecx, OFFSET ?m_HHSound@@3VCHHSound@@A	; m_HHSound
	call	?LoadWave@CHHSound@@QAE_NPADPAPAUIDirectSoundBuffer@@@Z ; CHHSound::LoadWave

; 311  : 		m_HHSound.SetVolume(g_pDS[4], 100);

	push	100					; 00000064H
	push	DWORD PTR ?g_pDS@@3PAPAUIDirectSoundBuffer@@A+16
	mov	ecx, OFFSET ?m_HHSound@@3VCHHSound@@A	; m_HHSound
	call	?SetVolume@CHHSound@@QAEXPAUIDirectSoundBuffer@@J@Z ; CHHSound::SetVolume

; 312  : 
; 313  : 		m_HHSound.LoadWave("sound/Worldreaver.wav", &g_pDS[5]);

	push	OFFSET ?g_pDS@@3PAPAUIDirectSoundBuffer@@A+20
	push	OFFSET ??_C@_0BG@LFOPIDOF@sound?1Worldreaver?4wav@
	mov	ecx, OFFSET ?m_HHSound@@3VCHHSound@@A	; m_HHSound
	call	?LoadWave@CHHSound@@QAE_NPADPAPAUIDirectSoundBuffer@@@Z ; CHHSound::LoadWave

; 314  : 		m_HHSound.SetVolume(g_pDS[5], 100);

	push	100					; 00000064H
	push	DWORD PTR ?g_pDS@@3PAPAUIDirectSoundBuffer@@A+20
	mov	ecx, OFFSET ?m_HHSound@@3VCHHSound@@A	; m_HHSound
	call	?SetVolume@CHHSound@@QAEXPAUIDirectSoundBuffer@@J@Z ; CHHSound::SetVolume

; 315  : 
; 316  : 		m_HHSound.LoadWave("sound/WorldreaverHit.wav", &g_pDS[6]);

	push	OFFSET ?g_pDS@@3PAPAUIDirectSoundBuffer@@A+24
	push	OFFSET ??_C@_0BJ@DDLHJIFA@sound?1WorldreaverHit?4wav@
	mov	ecx, OFFSET ?m_HHSound@@3VCHHSound@@A	; m_HHSound
	call	?LoadWave@CHHSound@@QAE_NPADPAPAUIDirectSoundBuffer@@@Z ; CHHSound::LoadWave

; 317  : 		m_HHSound.SetVolume(g_pDS[6], 100);

	push	100					; 00000064H
	push	DWORD PTR ?g_pDS@@3PAPAUIDirectSoundBuffer@@A+24
	mov	ecx, OFFSET ?m_HHSound@@3VCHHSound@@A	; m_HHSound
	call	?SetVolume@CHHSound@@QAEXPAUIDirectSoundBuffer@@J@Z ; CHHSound::SetVolume

; 318  : 		
; 319  : 		///// 입력장치 초기화
; 320  : 	///// 입력장치 초기화
; 321  : 
; 322  : 
; 323  : 	/////
; 324  :     BOOL rval = DXW_Init();

	call	?DXW_Init@@YAHXZ			; DXW_Init

; 325  :     if (!rval) return FALSE;

	test	eax, eax
	je	SHORT $LN5@Init

; 326  : 
; 327  :     return TRUE;

	mov	eax, 1

; 328  : }

	mov	esp, ebp
	pop	ebp
	ret	0
$LN5@Init:

; 325  :     if (!rval) return FALSE;

	xor	eax, eax

; 328  : }

	mov	esp, ebp
	pop	ebp
	ret	0
?__Init@@YAHPAUHINSTANCE__@@H@Z ENDP			; __Init
_TEXT	ENDS
; Function compile flags: /Ogtp
; File c:\users\administrator\desktop\김지훈 - 미러월드\1.src\dxwframe.cpp
;	COMDAT ?_ChangeDisplayMode@@YAHKKG@Z
_TEXT	SEGMENT
_dm$ = -160						; size = 156
__$ArrayPad$ = -4					; size = 4
_dwWidth$ = 8						; size = 4
_dwHeight$ = 12						; size = 4
_wBPP$ = 16						; size = 2
?_ChangeDisplayMode@@YAHKKG@Z PROC			; _ChangeDisplayMode, COMDAT

; 221  : {

	push	ebp
	mov	ebp, esp
	sub	esp, 160				; 000000a0H
	mov	eax, DWORD PTR ___security_cookie
	xor	eax, ebp
	mov	DWORD PTR __$ArrayPad$[ebp], eax

; 222  : 	DEVMODE dm;
; 223  : 	LONG    rval;
; 224  : 	
; 225  : 	dm.dmPelsWidth  = dwWidth;

	mov	eax, DWORD PTR _dwWidth$[ebp]
	mov	DWORD PTR _dm$[ebp+108], eax

; 226  : 	dm.dmPelsHeight = dwHeight;

	mov	eax, DWORD PTR _dwHeight$[ebp]
	mov	DWORD PTR _dm$[ebp+112], eax

; 227  : 	dm.dmBitsPerPel = wBPP;

	movzx	eax, WORD PTR _wBPP$[ebp]
	mov	DWORD PTR _dm$[ebp+104], eax

; 228  : 	dm.dmFields     = DM_PELSWIDTH | DM_PELSHEIGHT | DM_BITSPERPEL;
; 229  : 
; 230  :     rval = ChangeDisplaySettings(&dm, 0);

	lea	eax, DWORD PTR _dm$[ebp]
	push	0
	push	eax
	mov	DWORD PTR _dm$[ebp+40], 1835008		; 001c0000H
	call	DWORD PTR __imp__ChangeDisplaySettingsA@8

; 231  :     if (rval != DISP_CHANGE_SUCCESSFUL) return FALSE;
; 232  : 
; 233  : 	return TRUE;
; 234  : }

	mov	ecx, DWORD PTR __$ArrayPad$[ebp]
	neg	eax
	sbb	eax, eax
	xor	ecx, ebp
	inc	eax
	call	@__security_check_cookie@4
	mov	esp, ebp
	pop	ebp
	ret	0
?_ChangeDisplayMode@@YAHKKG@Z ENDP			; _ChangeDisplayMode
_TEXT	ENDS
; Function compile flags: /Ogtp
; File c:\users\administrator\desktop\김지훈 - 미러월드\1.src\dxwframe.cpp
;	COMDAT ??__EPlayerHP@@YAXXZ
text$di	SEGMENT
??__EPlayerHP@@YAXXZ PROC				; `dynamic initializer for 'PlayerHP'', COMDAT

; 169  : int PlayerHP = PlayerMHP;

	mov	eax, DWORD PTR ?PlayerMHP@@3HA		; PlayerMHP
	mov	DWORD PTR ?PlayerHP@@3HA, eax		; PlayerHP
	ret	0
??__EPlayerHP@@YAXXZ ENDP				; `dynamic initializer for 'PlayerHP''
text$di	ENDS
; Function compile flags: /Ogtp
; File c:\users\administrator\desktop\김지훈 - 미러월드\1.src\dxwframe.cpp
;	COMDAT ??__EP3HP@@YAXXZ
text$di	SEGMENT
??__EP3HP@@YAXXZ PROC					; `dynamic initializer for 'P3HP'', COMDAT

; 148  : int P3HP = P3MHP;

	mov	eax, DWORD PTR ?P3MHP@@3HA		; P3MHP
	mov	DWORD PTR ?P3HP@@3HA, eax		; P3HP
	ret	0
??__EP3HP@@YAXXZ ENDP					; `dynamic initializer for 'P3HP''
text$di	ENDS
; Function compile flags: /Ogtp
; File c:\users\administrator\desktop\김지훈 - 미러월드\1.src\dxwframe.cpp
;	COMDAT ??__EP2HP@@YAXXZ
text$di	SEGMENT
??__EP2HP@@YAXXZ PROC					; `dynamic initializer for 'P2HP'', COMDAT

; 146  : int P2HP = P2MHP;

	mov	eax, DWORD PTR ?P2MHP@@3HA		; P2MHP
	mov	DWORD PTR ?P2HP@@3HA, eax		; P2HP
	ret	0
??__EP2HP@@YAXXZ ENDP					; `dynamic initializer for 'P2HP''
text$di	ENDS
; Function compile flags: /Ogtp
; File c:\users\administrator\desktop\김지훈 - 미러월드\1.src\dxwframe.cpp
;	COMDAT ??__EP1HP@@YAXXZ
text$di	SEGMENT
??__EP1HP@@YAXXZ PROC					; `dynamic initializer for 'P1HP'', COMDAT

; 144  : int P1HP = P1MHP;

	mov	eax, DWORD PTR ?P1MHP@@3HA		; P1MHP
	mov	DWORD PTR ?P1HP@@3HA, eax		; P1HP
	ret	0
??__EP1HP@@YAXXZ ENDP					; `dynamic initializer for 'P1HP''
text$di	ENDS
; Function compile flags: /Ogtp
;	COMDAT ??__Fm_HHSound@@YAXXZ
text$yd	SEGMENT
??__Fm_HHSound@@YAXXZ PROC				; `dynamic atexit destructor for 'm_HHSound'', COMDAT
	mov	ecx, OFFSET ?m_HHSound@@3VCHHSound@@A	; m_HHSound
	jmp	??1CHHSound@@QAE@XZ			; CHHSound::~CHHSound
??__Fm_HHSound@@YAXXZ ENDP				; `dynamic atexit destructor for 'm_HHSound''
text$yd	ENDS
; Function compile flags: /Ogtp
; File c:\users\administrator\desktop\김지훈 - 미러월드\1.src\dxwframe.cpp
;	COMDAT ??__Em_HHSound@@YAXXZ
text$di	SEGMENT
??__Em_HHSound@@YAXXZ PROC				; `dynamic initializer for 'm_HHSound'', COMDAT

; 83   : CHHSound m_HHSound;

	mov	ecx, OFFSET ?m_HHSound@@3VCHHSound@@A	; m_HHSound
	call	??0CHHSound@@QAE@XZ			; CHHSound::CHHSound
	push	OFFSET ??__Fm_HHSound@@YAXXZ		; `dynamic atexit destructor for 'm_HHSound''
	call	_atexit
	pop	ecx
	ret	0
??__Em_HHSound@@YAXXZ ENDP				; `dynamic initializer for 'm_HHSound''
text$di	ENDS
; Function compile flags: /Ogtp
;	COMDAT ??__FgFpsMng@@YAXXZ
text$yd	SEGMENT
??__FgFpsMng@@YAXXZ PROC				; `dynamic atexit destructor for 'gFpsMng'', COMDAT
	mov	ecx, OFFSET ?gFpsMng@@3VCFpsMng@@A	; gFpsMng
	jmp	??1CFpsMng@@UAE@XZ			; CFpsMng::~CFpsMng
??__FgFpsMng@@YAXXZ ENDP				; `dynamic atexit destructor for 'gFpsMng''
text$yd	ENDS
; Function compile flags: /Ogtp
; File c:\users\administrator\desktop\김지훈 - 미러월드\1.src\dxwframe.cpp
;	COMDAT ??__EgFpsMng@@YAXXZ
text$di	SEGMENT
??__EgFpsMng@@YAXXZ PROC				; `dynamic initializer for 'gFpsMng'', COMDAT

; 47   : CFpsMng		gFpsMng;

	mov	ecx, OFFSET ?gFpsMng@@3VCFpsMng@@A	; gFpsMng
	call	??0CFpsMng@@QAE@XZ			; CFpsMng::CFpsMng
	push	OFFSET ??__FgFpsMng@@YAXXZ		; `dynamic atexit destructor for 'gFpsMng''
	call	_atexit
	pop	ecx
	ret	0
??__EgFpsMng@@YAXXZ ENDP				; `dynamic initializer for 'gFpsMng''
text$di	ENDS
; Function compile flags: /Ogtp
; File c:\users\administrator\desktop\김지훈 - 미러월드\1.src\dxwframe.cpp
;	COMDAT ?__FxColorize@@YAXPAUIDirectDrawSurface7@@0KKK@Z
_TEXT	SEGMENT
_lpDDSDst$ = 8						; size = 4
_lpDDSSrc$ = 12						; size = 4
_R2$ = 16						; size = 4
_G2$ = 20						; size = 4
_B2$ = 24						; size = 4
?__FxColorize@@YAXPAUIDirectDrawSurface7@@0KKK@Z PROC	; __FxColorize, COMDAT

; 6231 : 	/*
; 6232 : 	DWORD R, G, B;
; 6233 : 	DWORD RGB1,RGB2;
; 6234 : 	DWORD RGBRGB;
; 6235 : 	DDSURFACEDESC2 ddsdEffectSrc, ddsdEffectDst;
; 6236 : 	HRESULT ddrval;
; 6237 : 	DWORD  ix, iy;
; 6238 : 	
; 6239 : 	if (g_dwRGBBitCount == 16)
; 6240 : 	{											
; 6241 : 		// R = R * R2 / 32
; 6242 : 		// G = G * G2 / 64
; 6243 : 		// B = B * B2 / 32				
; 6244 : 	}
; 6245 : 	*/
; 6246 : }

	ret	0
?__FxColorize@@YAXPAUIDirectDrawSurface7@@0KKK@Z ENDP	; __FxColorize
_TEXT	ENDS
; Function compile flags: /Ogtp
; File c:\users\administrator\desktop\김지훈 - 미러월드\1.src\dxwframe.cpp
;	COMDAT ?__FxGrayScale@@YAXPAUIDirectDrawSurface7@@0@Z
_TEXT	SEGMENT
_lpDDSDst$ = 8						; size = 4
_lpDDSSrc$ = 12						; size = 4
?__FxGrayScale@@YAXPAUIDirectDrawSurface7@@0@Z PROC	; __FxGrayScale, COMDAT

; 6213 : 	/*
; 6214 : 	DWORD R, G, B;
; 6215 : 	DWORD RGB1,RGB2, Gray;
; 6216 : 	DWORD RGBRGB;
; 6217 : 	DDSURFACEDESC2 ddsdEffectSrc, ddsdEffectDst;
; 6218 : 	HRESULT ddrval;
; 6219 : 	DWORD  ix, iy;
; 6220 : 	
; 6221 : 	if (g_dwRGBBitCount == 16)
; 6222 : 	{
; 6223 : 		// Gray = (R + (G/2) + B) / 3;
; 6224 : 		// RGB1 = GetPixelRGB565(Gray, Gray*2, Gray);
; 6225 : 	}
; 6226 : 	*/
; 6227 : }

	ret	0
?__FxGrayScale@@YAXPAUIDirectDrawSurface7@@0@Z ENDP	; __FxGrayScale
_TEXT	ENDS
; Function compile flags: /Ogtp
; File c:\users\administrator\desktop\김지훈 - 미러월드\1.src\dxwframe.cpp
;	COMDAT ?__FxFadeTo@@YAXPAUIDirectDrawSurface7@@0KKK@Z
_TEXT	SEGMENT
_lpDDSDst$ = 8						; size = 4
_lpDDSSrc$ = 12						; size = 4
_R2$ = 16						; size = 4
_G2$ = 20						; size = 4
_B2$ = 24						; size = 4
?__FxFadeTo@@YAXPAUIDirectDrawSurface7@@0KKK@Z PROC	; __FxFadeTo, COMDAT

; 6187 : 	/*
; 6188 : 	DWORD R, G, B;
; 6189 : 	DWORD RGB1;
; 6190 : 	DWORD RGB2;	
; 6191 : 	DWORD RGBRGB;
; 6192 : 	DDSURFACEDESC2 ddsdEffectSrc, ddsdEffectDst;
; 6193 : 	HRESULT ddrval;
; 6194 : 	DWORD  ix, iy, i;
; 6195 : 	
; 6196 : 	if (g_dwRGBBitCount == 16)
; 6197 : 	{		
; 6198 : 		RGBRGB = *(lpEffectSrc+ix);
; 6199 : 
; 6200 : 		// 픽셀 변형 ( RGB 증감 )
; 6201 : 
; 6202 : 		RGBRGB = (RGB2 << 16) | RGB1;
; 6203 : 		
; 6204 : 		*(lpEffectSrc+ix) = RGBRGB;
; 6205 : 		*(lpEffectDst+ix) = RGBRGB;		
; 6206 : 	}
; 6207 : 	*/
; 6208 : }

	ret	0
?__FxFadeTo@@YAXPAUIDirectDrawSurface7@@0KKK@Z ENDP	; __FxFadeTo
_TEXT	ENDS
; Function compile flags: /Ogtp
; File c:\users\administrator\desktop\김지훈 - 미러월드\1.src\dxwframe.cpp
;	COMDAT ?__FxFadeInOutEx@@YAXPAUIDirectDrawSurface7@@0K@Z
_TEXT	SEGMENT
_lpDDSDst$ = 8						; size = 4
_lpDDSSrc$ = 12						; size = 4
_dwRate$ = 16						; size = 4
?__FxFadeInOutEx@@YAXPAUIDirectDrawSurface7@@0K@Z PROC	; __FxFadeInOutEx, COMDAT

; 6164 : 	/*
; 6165 : 	DWORD RGB1;
; 6166 : 	DWORD RGB2;
; 6167 : 	DWORD R, G, B;
; 6168 : 	DWORD RGBRGB;
; 6169 : 	DDSURFACEDESC2 ddsdEffectSrc, ddsdEffectDst;
; 6170 : 	HRESULT ddrval;
; 6171 : 	DWORD  ix, iy;
; 6172 : 	
; 6173 : 	if (g_dwRGBBitCount == 16)
; 6174 : 	{
; 6175 : 		//// 고속처리를 위해 Look Up Table 참조 ( 미리 계산된 결과, DXW_LUTInit() )
; 6176 : 		R = g_dwFADELUT[R][dwRate];
; 6177 : 		G = g_dwFADELUT[G][dwRate];
; 6178 : 		B = g_dwFADELUT[B][dwRate];
; 6179 : 	}
; 6180 : 	*/
; 6181 : }

	ret	0
?__FxFadeInOutEx@@YAXPAUIDirectDrawSurface7@@0K@Z ENDP	; __FxFadeInOutEx
_TEXT	ENDS
; Function compile flags: /Ogtp
; File c:\users\administrator\desktop\김지훈 - 미러월드\1.src\dxwframe.cpp
;	COMDAT ?__FxFadeOut@@YAXPAUIDirectDrawSurface7@@0K@Z
_TEXT	SEGMENT
_lpDDSDst$ = 8						; size = 4
_lpDDSSrc$ = 12						; size = 4
_dwRateStep$ = 16					; size = 4
?__FxFadeOut@@YAXPAUIDirectDrawSurface7@@0K@Z PROC	; __FxFadeOut, COMDAT

; 6140 : 	/*
; 6141 : 	DWORD RGB1;
; 6142 : 	DWORD RGB2;
; 6143 : 	DWORD R, G, B;
; 6144 : 	DWORD RGBRGB;
; 6145 : 	DDSURFACEDESC2 ddsdEffectSrc, ddsdEffectDst;
; 6146 : 	HRESULT ddrval;
; 6147 : 	DWORD  ix, iy, dwRate;
; 6148 : 	
; 6149 : 	if (g_dwRGBBitCount == 16)
; 6150 : 	{
; 6151 : 										
; 6152 : 		R = R * dwRate/100; 
; 6153 : 		G = G * dwRate/100; 
; 6154 : 		B = B * dwRate/100; 					
; 6155 : 	}
; 6156 : 	*/
; 6157 : }

	ret	0
?__FxFadeOut@@YAXPAUIDirectDrawSurface7@@0K@Z ENDP	; __FxFadeOut
_TEXT	ENDS
; Function compile flags: /Ogtp
; File c:\users\administrator\desktop\김지훈 - 미러월드\1.src\dxwframe.cpp
;	COMDAT ?__FxFadeIn@@YAXPAUIDirectDrawSurface7@@0K@Z
_TEXT	SEGMENT
_lpDDSDst$ = 8						; size = 4
_lpDDSSrc$ = 12						; size = 4
_dwRateStep$ = 16					; size = 4
?__FxFadeIn@@YAXPAUIDirectDrawSurface7@@0K@Z PROC	; __FxFadeIn, COMDAT

; 6120 : 	/*DWORD RGB1;
; 6121 : 	DWORD RGB2;
; 6122 : 	DWORD R, G, B;
; 6123 : 	DWORD RGBRGB;
; 6124 : 	DDSURFACEDESC2 ddsdEffectSrc, ddsdEffectDst;
; 6125 : 	HRESULT ddrval;
; 6126 : 	DWORD  ix, iy, dwRate;
; 6127 : 	
; 6128 : 	if (g_dwRGBBitCount == 16)
; 6129 : 	{										
; 6130 : 		R = R * dwRate/100; 
; 6131 : 		G = G * dwRate/100; 
; 6132 : 		B = B * dwRate/100;
; 6133 : 	}*/
; 6134 : }

	ret	0
?__FxFadeIn@@YAXPAUIDirectDrawSurface7@@0K@Z ENDP	; __FxFadeIn
_TEXT	ENDS
; Function compile flags: /Ogtp
; File c:\users\administrator\desktop\김지훈 - 미러월드\1.src\dxwframe.cpp
;	COMDAT ?DXW_LUTInit@@YAXXZ
_TEXT	SEGMENT
tv809 = -12						; size = 4
tv807 = -8						; size = 4
tv800 = -4						; size = 4
?DXW_LUTInit@@YAXXZ PROC				; DXW_LUTInit, COMDAT

; 486  : {	

	push	ebp
	mov	ebp, esp
	sub	esp, 12					; 0000000cH
	push	ebx

; 487  : 	//// Fade Look Up Table 생성
; 488  : 	for (DWORD dwDepth=0; dwDepth < 64; dwDepth++)

	xor	ebx, ebx
	mov	DWORD PTR tv809[ebp], 64		; 00000040H
	push	esi
	push	edi
	xor	edi, edi
	mov	eax, OFFSET ?g_dwFADELUT@@3PAY0GF@KA+16
	mov	DWORD PTR tv807[ebp], edi
	lea	ecx, DWORD PTR [ebx+5]
	mov	DWORD PTR tv800[ebp], eax
$LL4@DXW_LUTIni:

; 489  : 	{
; 490  : 		for (DWORD dwRate=0; dwRate <= 100; dwRate++)

	movd	xmm0, ebx
	xor	edx, edx
	cmp	DWORD PTR ___isa_available, 2
	pshufd	xmm3, xmm0, 0
	jl	$LN25@DXW_LUTIni
	movaps	xmm4, XMMWORD PTR __xmm@00000003000000020000000100000000
	mov	esi, eax
	movaps	xmm2, XMMWORD PTR __xmm@51eb851f51eb851f51eb851f51eb851f
	movd	xmm5, ecx
	lea	ecx, DWORD PTR [edx+8]
$LL7@DXW_LUTIni:

; 491  : 		{
; 492  : 			g_dwFADELUT[dwDepth][dwRate] = dwDepth * dwRate/100;

	movd	xmm0, edx
	lea	eax, DWORD PTR [ecx-4]
	pshufd	xmm1, xmm0, 0
	lea	esi, DWORD PTR [esi+64]
	paddd	xmm1, xmm4
	add	edx, 16					; 00000010H
	pmulld	xmm1, xmm3
	movaps	xmm0, xmm1
	punpckldq xmm0, xmm1
	pmuludq	xmm0, xmm2
	punpckhdq xmm1, xmm1
	pmuludq	xmm1, xmm2
	shufps	xmm0, xmm1, 221				; 000000ddH
	psrld	xmm0, xmm5
	movups	XMMWORD PTR [esi-80], xmm0
	movd	xmm0, eax
	lea	eax, DWORD PTR [ecx+4]
	pshufd	xmm1, xmm0, 0
	paddd	xmm1, xmm4
	pmulld	xmm1, xmm3
	movaps	xmm0, xmm1
	punpckldq xmm0, xmm1
	pmuludq	xmm0, xmm2
	punpckhdq xmm1, xmm1
	pmuludq	xmm1, xmm2
	shufps	xmm0, xmm1, 221				; 000000ddH
	psrld	xmm0, xmm5
	movups	XMMWORD PTR [esi-64], xmm0
	movd	xmm0, ecx
	add	ecx, 16					; 00000010H
	pshufd	xmm1, xmm0, 0
	paddd	xmm1, xmm4
	pmulld	xmm1, xmm3
	movaps	xmm0, xmm1
	punpckldq xmm0, xmm1
	pmuludq	xmm0, xmm2
	punpckhdq xmm1, xmm1
	pmuludq	xmm1, xmm2
	shufps	xmm0, xmm1, 221				; 000000ddH
	psrld	xmm0, xmm5
	movups	XMMWORD PTR [esi-48], xmm0
	movd	xmm0, eax
	pshufd	xmm1, xmm0, 0
	paddd	xmm1, xmm4
	pmulld	xmm1, xmm3
	movaps	xmm0, xmm1
	punpckldq xmm0, xmm1
	punpckhdq xmm1, xmm1
	pmuludq	xmm0, xmm2
	pmuludq	xmm1, xmm2
	shufps	xmm0, xmm1, 221				; 000000ddH
	psrld	xmm0, xmm5
	movups	XMMWORD PTR [esi-32], xmm0
	cmp	ecx, 103				; 00000067H
	jbe	$LL7@DXW_LUTIni

; 489  : 	{
; 490  : 		for (DWORD dwRate=0; dwRate <= 100; dwRate++)

	cmp	edx, 100				; 00000064H
	ja	SHORT $LN2@DXW_LUTIni
$LN25@DXW_LUTIni:
	lea	eax, DWORD PTR [edi+edx]
	mov	ecx, edx
	mov	edi, 101				; 00000065H
	imul	ecx, ebx
	lea	esi, DWORD PTR ?g_dwFADELUT@@3PAY0GF@KA[eax*4]
	sub	edi, edx
	npad	8
$LL24@DXW_LUTIni:

; 491  : 		{
; 492  : 			g_dwFADELUT[dwDepth][dwRate] = dwDepth * dwRate/100;

	mov	eax, 1374389535				; 51eb851fH
	lea	esi, DWORD PTR [esi+4]
	mul	ecx
	add	ecx, ebx
	shr	edx, 5
	mov	DWORD PTR [esi-4], edx
	sub	edi, 1
	jne	SHORT $LL24@DXW_LUTIni
	mov	edi, DWORD PTR tv807[ebp]
$LN2@DXW_LUTIni:

; 487  : 	//// Fade Look Up Table 생성
; 488  : 	for (DWORD dwDepth=0; dwDepth < 64; dwDepth++)

	mov	eax, DWORD PTR tv800[ebp]
	add	edi, 101				; 00000065H
	add	eax, 404				; 00000194H
	mov	DWORD PTR tv807[ebp], edi
	inc	ebx
	mov	DWORD PTR tv800[ebp], eax
	sub	DWORD PTR tv809[ebp], 1
	mov	ecx, 5
	jne	$LL4@DXW_LUTIni

; 493  : 		}
; 494  : 	}	
; 495  : }

	pop	edi
	pop	esi
	pop	ebx
	mov	esp, ebp
	pop	ebp
	ret	0
?DXW_LUTInit@@YAXXZ ENDP				; DXW_LUTInit
_TEXT	ENDS
; Function compile flags: /Ogtp
; File c:\users\administrator\desktop\김지훈 - 미러월드\1.src\dxwframe.cpp
;	COMDAT ?__PutSpriteLockFastCkEx16@@YAXPAUIDirectDrawSurface7@@HHK@Z
_TEXT	SEGMENT
tv770 = -456						; size = 4
tv771 = -452						; size = 4
tv768 = -448						; size = 4
_dwWidthSrc$1$ = -444					; size = 4
_dwColorSpaceLowValueMixed2$1$ = -440			; size = 4
_lpDDS$GSCopy$1$ = -436					; size = 4
_dwHeight$1$ = -432					; size = 4
_lpDDSSrc$1$ = -428					; size = 4
_lpDDSDst$1$ = -424					; size = 4
_dwColorSpaceLowValue$1$ = -420				; size = 4
_dwColorSpaceLowValueMixed$1$ = -416			; size = 4
_dwWidth$1$ = -412					; size = 4
_ddsdDst$ = -408					; size = 124
_ddsdSrc$ = -284					; size = 124
_ddsd$ = -160						; size = 124
_rcDst$ = -36						; size = 16
_rcSrc$ = -20						; size = 16
__$ArrayPad$ = -4					; size = 4
_lpDDS$ = 8						; size = 4
_x$ = 12						; size = 4
_y$ = 16						; size = 4
_dwColorKey2$ = 20					; size = 4
?__PutSpriteLockFastCkEx16@@YAXPAUIDirectDrawSurface7@@HHK@Z PROC ; __PutSpriteLockFastCkEx16, COMDAT

; 5216 : {

	push	ebp
	mov	ebp, esp
	sub	esp, 456				; 000001c8H
	mov	eax, DWORD PTR ___security_cookie
	xor	eax, ebp
	mov	DWORD PTR __$ArrayPad$[ebp], eax
	mov	ecx, DWORD PTR _lpDDS$[ebp]

; 5217 : 	//// 클립핑 영역구하기
; 5218 : 	//// 표면의 정보 얻기
; 5219 : 	DDSURFACEDESC2 ddsd;
; 5220 :     ddsd.dwSize = sizeof(ddsd);
; 5221 :     //ddsd.dwFlags = DDSD_HEIGHT | DDSD_WIDTH;
; 5222 : 	lpDDS->GetSurfaceDesc(&ddsd);

	lea	edx, DWORD PTR _ddsd$[ebp]
	push	ebx
	push	esi
	push	edi
	mov	eax, DWORD PTR [ecx]
	push	edx
	push	ecx
	mov	DWORD PTR _lpDDS$GSCopy$1$[ebp], ecx
	mov	DWORD PTR _ddsd$[ebp], 124		; 0000007cH
	call	DWORD PTR [eax+88]

; 5223 : 
; 5224 : 	//// 스크린좌표의 RECT를 구한다
; 5225 : 	RECT rcDst = { x, y, x+ddsd.dwWidth, y+ddsd.dwHeight };

	mov	esi, DWORD PTR _x$[ebp]
	mov	eax, DWORD PTR _y$[ebp]
	mov	edx, DWORD PTR _ddsd$[ebp+12]
	mov	ecx, DWORD PTR _ddsd$[ebp+8]
	mov	DWORD PTR _rcDst$[ebp], esi
	mov	DWORD PTR _rcDst$[ebp+4], eax

; 5226 : 	RECT rcSrc = { 0, 0, ddsd.dwWidth, ddsd.dwHeight };

	mov	DWORD PTR _rcSrc$[ebp], 0
	lea	ebx, DWORD PTR [edx+esi]
	mov	DWORD PTR _rcDst$[ebp+8], ebx
	lea	edi, DWORD PTR [ecx+eax]
	mov	DWORD PTR _rcDst$[ebp+12], edi
	mov	DWORD PTR _rcSrc$[ebp+4], 0
	mov	DWORD PTR _rcSrc$[ebp+8], edx
	mov	DWORD PTR _rcSrc$[ebp+12], ecx

; 5227 : 
; 5228 : 	//// 스크린 밖으로 나가면 출력하지 않는다
; 5229 : 	if (x >= HRES || y >= VRES) return;

	cmp	esi, 1024				; 00000400H
	jge	$LN13@PutSpriteL
	cmp	eax, 768				; 00000300H
	jge	$LN13@PutSpriteL

; 5230 : 	if (rcDst.right <= 0 || rcDst.bottom <= 0) return;

	test	ebx, ebx
	jle	$LN13@PutSpriteL
	test	edi, edi
	jle	$LN13@PutSpriteL

; 5231 : 	
; 5232 : 	//// 스프라이트가 스크린 밖으로 나간 만큼 출력하지 않는다
; 5233 : 	//// 오프 스크린의 사각영역을 감소 시켜 클리핑을 구현한다	
; 5234 : 
; 5235 : 	//// 수평 보정
; 5236 : 	if (x < 0)

	test	esi, esi
	jns	SHORT $LN14@PutSpriteL

; 5237 : 	{
; 5238 : 		// 좌변을 줄인다. rcSrc.left += 넘어간 크기, abs(x)
; 5239 : 		rcSrc.left -= x;

	neg	esi

; 5240 : 		rcDst.left=x=0;		

	mov	DWORD PTR _rcDst$[ebp], 0
	mov	DWORD PTR _rcSrc$[ebp], esi
	jmp	SHORT $LN16@PutSpriteL
$LN14@PutSpriteL:

; 5241 : 	}
; 5242 : 	else if (rcDst.right >= HRES)

	cmp	ebx, 1024				; 00000400H
	jl	SHORT $LN16@PutSpriteL

; 5243 : 	{
; 5244 : 		// 우변을 줄인다. rcSrc.right -= 넘어간 크기
; 5245 : 		int nOverSize = (rcDst.right - HRES);		
; 5246 : 		rcSrc.right -= nOverSize;

	sub	edx, ebx

; 5247 : 		rcDst.right -= nOverSize;

	mov	DWORD PTR _rcDst$[ebp+8], 1024		; 00000400H
	add	edx, 1024				; 00000400H
	mov	DWORD PTR _rcSrc$[ebp+8], edx
$LN16@PutSpriteL:

; 5248 : 	}
; 5249 : 	//// 수직 보정
; 5250 : 	if (y < 0)

	test	eax, eax
	jns	SHORT $LN17@PutSpriteL

; 5251 : 	{
; 5252 : 		// 상변을 줄인다. rcSrc.top += 넘어간 크기, abs(y)
; 5253 : 		rcSrc.top -= y;

	neg	eax

; 5254 : 		rcDst.top=y=0;

	mov	DWORD PTR _rcDst$[ebp+4], 0
	mov	DWORD PTR _rcSrc$[ebp+4], eax
	jmp	SHORT $LN19@PutSpriteL
$LN17@PutSpriteL:

; 5255 : 	}
; 5256 : 	else if (rcDst.bottom >= VRES )

	cmp	edi, 768				; 00000300H
	jl	SHORT $LN19@PutSpriteL

; 5257 : 	{
; 5258 : 		// 하변을 줄인다. rcSrc.bottom -= 넘어간 크기 
; 5259 : 		int nOverSize = (rcDst.bottom - VRES);
; 5260 : 		rcSrc.bottom -= nOverSize;

	sub	ecx, edi

; 5261 : 		rcDst.bottom -= nOverSize;

	mov	DWORD PTR _rcDst$[ebp+12], 768		; 00000300H
	add	ecx, 768				; 00000300H
	mov	DWORD PTR _rcSrc$[ebp+12], ecx
$LN19@PutSpriteL:

; 5262 : 	}
; 5263 : 
; 5264 : 	////////////////////// 
; 5265 : 	DWORD RGBRGB;
; 5266 : 	DWORD sRGB1, sRGB2;
; 5267 : 
; 5268 : 	DWORD ix, iy;
; 5269 :     DDSURFACEDESC2 ddsdSrc, ddsdDst;
; 5270 : 
; 5271 : 	//// 소스표면 Lock
; 5272 : 	ZeroMemory(&ddsdSrc, sizeof(ddsdSrc));	

	push	120					; 00000078H
	lea	eax, DWORD PTR _ddsdSrc$[ebp+4]
	push	0
	push	eax
	call	_memset

; 5273 : 	ddsdSrc.dwSize = sizeof(ddsdSrc);
; 5274 : 	HRESULT ddrval = lpDDS->Lock(&rcSrc, &ddsdSrc, DDLOCK_READONLY|DDLOCK_WAIT, NULL);

	mov	ebx, DWORD PTR _lpDDS$GSCopy$1$[ebp]
	lea	ecx, DWORD PTR _ddsdSrc$[ebp]
	add	esp, 12					; 0000000cH
	mov	DWORD PTR _ddsdSrc$[ebp], 124		; 0000007cH
	mov	eax, DWORD PTR [ebx]
	push	0
	push	17					; 00000011H
	push	ecx
	lea	ecx, DWORD PTR _rcSrc$[ebp]
	push	ecx
	push	ebx
	call	DWORD PTR [eax+100]

; 5275 :     if (ddrval != DD_OK) { DDERRCHK(ddrval); return; }

	test	eax, eax
	je	SHORT $LN20@PutSpriteL
	push	5275					; 0000149bH
	push	OFFSET ??_C@_0EE@LHDKHKAN@c?3?2users?2administrator?2desktop?2@
	push	eax
	call	?___DDError@@YAHJPADH@Z			; ___DDError
	add	esp, 12					; 0000000cH
	pop	edi

; 5398 : }

	pop	esi
	pop	ebx
	mov	ecx, DWORD PTR __$ArrayPad$[ebp]
	xor	ecx, ebp
	call	@__security_check_cookie@4
	mov	esp, ebp
	pop	ebp
	ret	0
$LN20@PutSpriteL:

; 5276 :     
; 5277 :     //// 목적표면의 RECT
; 5278 :     //RECT rcDest = { x, y, x+ddsdSrc.dwWidth, y+ddsdSrc.dwHeight };
; 5279 : 
; 5280 : 	//// 목적표면 Lock
; 5281 : 	ZeroMemory(&ddsdDst, sizeof(ddsdDst));	

	push	120					; 00000078H
	lea	eax, DWORD PTR _ddsdDst$[ebp+4]
	push	0
	push	eax
	call	_memset

; 5282 : 	ddsdDst.dwSize = sizeof(ddsdDst);
; 5283 : 	ddrval = g_pDDSBack->Lock(&rcDst, &ddsdDst, DDLOCK_WRITEONLY|DDLOCK_WAIT, NULL);

	mov	eax, DWORD PTR ?g_pDDSBack@@3PAUIDirectDrawSurface7@@A ; g_pDDSBack
	lea	edx, DWORD PTR _ddsdDst$[ebp]
	add	esp, 12					; 0000000cH
	mov	DWORD PTR _ddsdDst$[ebp], 124		; 0000007cH
	mov	ecx, DWORD PTR [eax]
	push	0
	push	33					; 00000021H
	push	edx
	lea	edx, DWORD PTR _rcDst$[ebp]
	push	edx
	push	eax
	call	DWORD PTR [ecx+100]
	mov	esi, eax

; 5284 :     if (ddrval != DD_OK)

	test	esi, esi
	je	SHORT $LN21@PutSpriteL

; 5285 :     {
; 5286 :     	//// 소스표면은 Lock 상태이므로 Unlock
; 5287 :         lpDDS->Unlock(&rcSrc);

	mov	ecx, DWORD PTR [ebx]
	lea	eax, DWORD PTR _rcSrc$[ebp]
	push	eax
	push	ebx
	call	DWORD PTR [ecx+128]

; 5288 :         DDERRCHK(ddrval);

	push	5288					; 000014a8H
	push	OFFSET ??_C@_0EE@LHDKHKAN@c?3?2users?2administrator?2desktop?2@
	push	esi
	call	?___DDError@@YAHJPADH@Z			; ___DDError
	add	esp, 12					; 0000000cH
	pop	edi

; 5398 : }

	pop	esi
	pop	ebx
	mov	ecx, DWORD PTR __$ArrayPad$[ebp]
	xor	ecx, ebp
	call	@__security_check_cookie@4
	mov	esp, ebp
	pop	ebp
	ret	0
$LN21@PutSpriteL:

; 5289 :         return;
; 5290 :     }
; 5291 : 
; 5292 : 	//// 표면의 주소
; 5293 : 	DWORD* lpDDSSrc = (DWORD*) ddsdSrc.lpSurface;
; 5294 : 	DWORD* lpDDSDst = (DWORD*) ddsdDst.lpSurface;
; 5295 : 	WORD*  lpDDSDstTemp;
; 5296 : 
; 5297 : 	//TRACE1("%x\n", lpDDSSrc);
; 5298 : 
; 5299 : 	//// 소스표면의 컬러키 참조
; 5300 : 	DWORD dwColorSpaceLowValue = ddsdSrc.ddckCKSrcBlt.dwColorSpaceLowValue;
; 5301 : 	
; 5302 : 	////
; 5303 : 	DWORD dwSrcPitch = ddsdSrc.lPitch >> 2; // 4바이트 정렬, /4
; 5304 : 	DWORD dwDstPitch = ddsdDst.lPitch >> 2;
; 5305 : 
; 5306 : 	DWORD dwWidthSrc = rcSrc.right-rcSrc.left;

	mov	edi, DWORD PTR _rcSrc$[ebp+8]
	sub	edi, DWORD PTR _rcSrc$[ebp]
	mov	ecx, DWORD PTR _ddsdDst$[ebp+16]

; 5307 : 	DWORD dwWidth  = dwWidthSrc >> 1;       // 2개의 픽셀을 읽으므로 /2

	mov	ebx, edi
	mov	eax, DWORD PTR _ddsdDst$[ebp+36]

; 5308 : 	DWORD dwHeight = rcSrc.bottom-rcSrc.top;
; 5309 : 	//// 홀수폭인 경우 나머지 플래그 ( 1 픽셀 )
; 5310 : 	BOOL bIsRemain = FALSE;
; 5311 : 	if (dwWidthSrc % 2) bIsRemain = TRUE;

	and	edi, 1
	mov	edx, DWORD PTR _ddsdSrc$[ebp+36]
	mov	esi, DWORD PTR _ddsdSrc$[ebp+64]
	shr	ebx, 1
	mov	DWORD PTR _dwWidth$1$[ebp], ebx
	mov	ebx, DWORD PTR _rcSrc$[ebp+12]
	sub	ebx, DWORD PTR _rcSrc$[ebp+4]
	sar	ecx, 2

; 5312 : 
; 5313 : 	//// BPP
; 5314 : 	switch(g_dwRGBBitCount)

	cmp	DWORD PTR ?g_dwRGBBitCount@@3KA, 16	; g_dwRGBBitCount, 00000010H
	mov	DWORD PTR _lpDDSDst$1$[ebp], eax
	mov	eax, DWORD PTR _ddsdSrc$[ebp+16]
	mov	DWORD PTR _lpDDSSrc$1$[ebp], edx
	mov	DWORD PTR _dwColorSpaceLowValue$1$[ebp], esi
	mov	DWORD PTR _dwHeight$1$[ebp], ebx
	mov	DWORD PTR _dwWidthSrc$1$[ebp], edi
	jne	$LN5@PutSpriteL

; 5315 : 	{
; 5316 : 	case 16 :
; 5317 : 		{
; 5318 : 			//// 두개의 픽셀에 대한 컬러키 값을 구한다. 고속 판정을 위한 OR 연산
; 5319 : 			DWORD dwColorSpaceLowValueMixed = dwColorSpaceLowValue << 16 | dwColorSpaceLowValue;

	mov	ebx, esi
	shl	ebx, 16					; 00000010H
	or	ebx, esi
	mov	DWORD PTR _dwColorSpaceLowValueMixed$1$[ebp], ebx

; 5320 : 			DWORD dwColorSpaceLowValueMixed2 = dwColorKey2 << 16 | dwColorKey2;

	mov	ebx, DWORD PTR _dwColorKey2$[ebp]
	mov	esi, ebx
	shl	esi, 16					; 00000010H
	or	esi, ebx

; 5321 : 
; 5322 : 			if (g_dwPixelFormat == RGB565)

	cmp	DWORD PTR ?g_dwPixelFormat@@3KA, 565	; g_dwPixelFormat, 00000235H
	mov	DWORD PTR _dwColorSpaceLowValueMixed2$1$[ebp], esi
	jne	$LN5@PutSpriteL

; 5323 : 			{
; 5324 : 				for (iy=0; iy < dwHeight; iy++)

	mov	esi, DWORD PTR _dwHeight$1$[ebp]
	test	esi, esi
	je	$LN5@PutSpriteL
	and	eax, -4					; fffffffcH
	mov	DWORD PTR tv771[ebp], eax
	lea	eax, DWORD PTR [ecx*4]
	mov	ecx, DWORD PTR _lpDDSDst$1$[ebp]
	mov	DWORD PTR tv770[ebp], eax
	mov	eax, DWORD PTR _dwWidth$1$[ebp]
	npad	3
$LL6@PutSpriteL:

; 5325 : 				{
; 5326 : 					for (ix=0; ix < dwWidth; ix++)

	xor	edi, edi
	test	eax, eax
	je	$LN8@PutSpriteL
	mov	esi, edx
	add	ecx, 4
	sub	esi, DWORD PTR _lpDDSDst$1$[ebp]
	mov	DWORD PTR tv768[ebp], esi
	mov	esi, DWORD PTR _dwColorSpaceLowValueMixed$1$[ebp]
$LL9@PutSpriteL:

; 5327 : 					{
; 5328 : 						//// 두개의 픽셀을 얻어온다
; 5329 : 						//memcpy(&RGBRGB, lpDDSSrc+ix, 4);
; 5330 : 						RGBRGB = *(lpDDSSrc+ix);

	mov	edx, DWORD PTR [edx+edi*4]

; 5331 : 						
; 5332 : 						//// 두개의 픽셀이 컬러키이면 루프반복 ( 다음 픽셀 그룹을 얻는다 )
; 5333 : 						if (RGBRGB == dwColorSpaceLowValueMixed) continue;

	cmp	edx, esi
	je	$LN7@PutSpriteL

; 5334 : 						if (RGBRGB == dwColorSpaceLowValueMixed2) continue;

	cmp	edx, DWORD PTR _dwColorSpaceLowValueMixed2$1$[ebp]
	je	$LN7@PutSpriteL

; 5335 : 						
; 5336 : 						//// 픽셀을 분리한다
; 5337 : 						sRGB1 = RGBRGB & 0x0000FFFF;
; 5338 : 						sRGB2 = RGBRGB >> 16;

	mov	eax, edx
	movzx	esi, dx
	shr	eax, 16					; 00000010H

; 5339 : 						
; 5340 : 						//// 소스표면의 픽셀 sRGB1,2가 이미지인 경우
; 5341 : 						if ((sRGB1 != dwColorSpaceLowValue && sRGB2 != dwColorSpaceLowValue) &&

	cmp	esi, DWORD PTR _dwColorSpaceLowValue$1$[ebp]
	je	SHORT $LN30@PutSpriteL
	cmp	eax, DWORD PTR _dwColorSpaceLowValue$1$[ebp]
	je	SHORT $LN28@PutSpriteL
	cmp	esi, ebx
	je	SHORT $LN30@PutSpriteL
	cmp	eax, ebx
	je	SHORT $LN28@PutSpriteL

; 5342 : 							(sRGB1 != dwColorKey2          && sRGB2 != dwColorKey2))
; 5343 : 						{
; 5344 : 							//memcpy(lpDDSDst+ix, &RGBRGB, 4);
; 5345 : 							*(lpDDSDst+ix) = RGBRGB;							

	mov	esi, DWORD PTR _dwColorSpaceLowValue$1$[ebp]
	mov	DWORD PTR [ecx-4], edx
	jmp	SHORT $LN32@PutSpriteL
$LN28@PutSpriteL:

; 5346 : 						}
; 5347 : 						//// 소스표면의 픽셀 sRGB1이 이미지 픽셀인 경우
; 5348 : 						// else if (sRGB1 != dwColorSpaceLowValue && sRGB2 == dwColorSpaceLowValue )
; 5349 : 						else if (sRGB1 != dwColorSpaceLowValue && sRGB1 != dwColorKey2)

	cmp	esi, ebx
	je	SHORT $LN30@PutSpriteL

; 5350 : 						{							
; 5351 : 							lpDDSDstTemp = (WORD*)(lpDDSDst+ix);
; 5352 : 							*lpDDSDstTemp = (WORD)sRGB1;							

	mov	WORD PTR [ecx-4], si
	mov	esi, DWORD PTR _dwColorSpaceLowValue$1$[ebp]
	jmp	SHORT $LN32@PutSpriteL
$LN30@PutSpriteL:

; 5353 : 						}
; 5354 : 						//// 소스표면의 픽셀 sRGB1이 이미지 픽셀인 경우
; 5355 : 						// else if (sRGB1 == dwColorSpaceLowValue && sRGB2 != dwColorSpaceLowValue )
; 5356 : 						else if (sRGB2 != dwColorSpaceLowValue && sRGB2 != dwColorKey2)

	mov	esi, DWORD PTR _dwColorSpaceLowValue$1$[ebp]
	cmp	eax, esi
	je	SHORT $LN32@PutSpriteL
	cmp	eax, ebx
	je	SHORT $LN32@PutSpriteL

; 5357 : 						//else 
; 5358 : 						{
; 5359 : 							lpDDSDstTemp = (WORD*)(lpDDSDst+ix);
; 5360 : 							*(lpDDSDstTemp+1) = (WORD)sRGB2;

	mov	WORD PTR [ecx-2], ax
$LN32@PutSpriteL:

; 5361 : 						}
; 5362 : 
; 5363 : 
; 5364 : 						//// 홀수폭, 1 픽셀
; 5365 : 						// if (bIsRemain && ix == dwWidth-1)						
; 5366 : 						if (ix == dwWidth-1)

	mov	eax, DWORD PTR _dwWidth$1$[ebp]
	dec	eax
	cmp	edi, eax
	jne	SHORT $LN52@PutSpriteL

; 5367 : 						{
; 5368 : 							if (bIsRemain)

	cmp	DWORD PTR _dwWidthSrc$1$[ebp], 0
	je	SHORT $LN52@PutSpriteL

; 5369 : 							{								
; 5370 : 								sRGB1 = *(lpDDSSrc+ix+1) & 0x0000FFFF;

	mov	eax, DWORD PTR tv768[ebp]
	movzx	eax, WORD PTR [eax+ecx]

; 5371 : 								if (sRGB1 != dwColorSpaceLowValue && sRGB1 != dwColorKey2)

	cmp	eax, esi
	je	SHORT $LN52@PutSpriteL
	mov	esi, DWORD PTR _dwColorSpaceLowValueMixed$1$[ebp]
	cmp	eax, ebx
	je	SHORT $LN54@PutSpriteL

; 5372 : 								{
; 5373 : 									lpDDSDstTemp = (WORD*)(lpDDSDst+ix+1);
; 5374 : 									*lpDDSDstTemp = (WORD)sRGB1;

	mov	WORD PTR [ecx], ax
	jmp	SHORT $LN54@PutSpriteL
$LN52@PutSpriteL:

; 5325 : 				{
; 5326 : 					for (ix=0; ix < dwWidth; ix++)

	mov	esi, DWORD PTR _dwColorSpaceLowValueMixed$1$[ebp]
$LN54@PutSpriteL:
	mov	eax, DWORD PTR _dwWidth$1$[ebp]
$LN7@PutSpriteL:
	mov	edx, DWORD PTR _lpDDSSrc$1$[ebp]
	inc	edi
	add	ecx, 4
	cmp	edi, eax
	jb	$LL9@PutSpriteL
	mov	ecx, DWORD PTR _lpDDSDst$1$[ebp]
	mov	esi, DWORD PTR _dwHeight$1$[ebp]
$LN8@PutSpriteL:

; 5375 : 								}
; 5376 : 							}
; 5377 : 						}
; 5378 : 					}
; 5379 : 					lpDDSSrc += dwSrcPitch;

	add	edx, DWORD PTR tv771[ebp]

; 5380 : 					lpDDSDst += dwDstPitch;

	add	ecx, DWORD PTR tv770[ebp]
	sub	esi, 1
	mov	DWORD PTR _lpDDSSrc$1$[ebp], edx
	mov	DWORD PTR _lpDDSDst$1$[ebp], ecx
	mov	DWORD PTR _dwHeight$1$[ebp], esi
	jne	$LL6@PutSpriteL
$LN5@PutSpriteL:

; 5381 : 				}
; 5382 : 			}	
; 5383 : 			else if (g_dwPixelFormat == BGR565)
; 5384 : 			{
; 5385 : 			}
; 5386 : 			else if (g_dwPixelFormat == RGB555)
; 5387 : 			{
; 5388 : 			}
; 5389 : 			break;
; 5390 : 		}
; 5391 : 	case 24 :
; 5392 : 	case 32 : break;
; 5393 : 	}
; 5394 : 	
; 5395 : 	//// 표면 Unlock
; 5396 :     g_pDDSBack->Unlock(&rcDst);

	mov	eax, DWORD PTR ?g_pDDSBack@@3PAUIDirectDrawSurface7@@A ; g_pDDSBack
	lea	edx, DWORD PTR _rcDst$[ebp]
	push	edx
	push	eax
	mov	ecx, DWORD PTR [eax]
	call	DWORD PTR [ecx+128]

; 5397 :     lpDDS->Unlock(&rcSrc);	

	mov	ecx, DWORD PTR _lpDDS$GSCopy$1$[ebp]
	lea	edx, DWORD PTR _rcSrc$[ebp]
	push	edx
	push	ecx
	mov	eax, DWORD PTR [ecx]
	call	DWORD PTR [eax+128]
$LN13@PutSpriteL:

; 5398 : }

	mov	ecx, DWORD PTR __$ArrayPad$[ebp]
	pop	edi
	pop	esi
	xor	ecx, ebp
	pop	ebx
	call	@__security_check_cookie@4
	mov	esp, ebp
	pop	ebp
	ret	0
?__PutSpriteLockFastCkEx16@@YAXPAUIDirectDrawSurface7@@HHK@Z ENDP ; __PutSpriteLockFastCkEx16
_TEXT	ENDS
; Function compile flags: /Ogtp
; File c:\users\administrator\desktop\김지훈 - 미러월드\1.src\dxwframe.cpp
;	COMDAT ?__PutSpriteCk@@YAXPAUIDirectDrawSurface7@@HH@Z
_TEXT	SEGMENT
_ddbltfx$1 = -384					; size = 100
_ddsdVBF$ = -284					; size = 124
_ddsdSrc$ = -160					; size = 124
_rcDst$ = -36						; size = 16
_rSrc$ = -20						; size = 16
__$ArrayPad$ = -4					; size = 4
_lpDDS$ = 8						; size = 4
_x$ = 12						; size = 4
_y$ = 16						; size = 4
?__PutSpriteCk@@YAXPAUIDirectDrawSurface7@@HH@Z PROC	; __PutSpriteCk, COMDAT

; 6065 : {

	push	ebp
	mov	ebp, esp
	sub	esp, 384				; 00000180H
	mov	eax, DWORD PTR ___security_cookie
	xor	eax, ebp
	mov	DWORD PTR __$ArrayPad$[ebp], eax
	push	edi
	mov	edi, DWORD PTR _lpDDS$[ebp]

; 6066 : 	ASSERT(lpDDS != NULL);
; 6067 : 
; 6068 : 	//// 표면의 크기 정보를 얻는다 ( 임시코드 )
; 6069 : 	DDSURFACEDESC2 ddsdSrc, ddsdVBF;
; 6070 :     ddsdSrc.dwSize = sizeof(ddsdSrc);
; 6071 : 	ddsdVBF.dwSize = sizeof(ddsdVBF);
; 6072 : 	lpDDS->GetSurfaceDesc(&ddsdSrc);

	lea	ecx, DWORD PTR _ddsdSrc$[ebp]
	push	ecx
	push	edi
	mov	DWORD PTR _ddsdSrc$[ebp], 124		; 0000007cH
	mov	eax, DWORD PTR [edi]
	mov	DWORD PTR _ddsdVBF$[ebp], 124		; 0000007cH
	call	DWORD PTR [eax+88]

; 6073 : 	g_pDDSVBuffer->GetSurfaceDesc(&ddsdVBF);

	mov	eax, DWORD PTR ?g_pDDSVBuffer@@3PAUIDirectDrawSurface7@@A ; g_pDDSVBuffer
	lea	edx, DWORD PTR _ddsdVBF$[ebp]
	push	edx
	push	eax
	mov	ecx, DWORD PTR [eax]
	call	DWORD PTR [ecx+88]

; 6074 : 
; 6075 : 	//// 클립핑 영역을 구한다
; 6076 : 	// 표면 재전송의 최소화 ( src -> vbuff )
; 6077 :     RECT rSrc, rcDst;
; 6078 :     if (!__GetClipRect(x, y, ddsdSrc.dwWidth, ddsdSrc.dwHeight, &rSrc, &rcDst)) return;

	lea	eax, DWORD PTR _rcDst$[ebp]
	push	eax
	lea	eax, DWORD PTR _rSrc$[ebp]
	push	eax
	push	DWORD PTR _ddsdSrc$[ebp+8]
	push	DWORD PTR _ddsdSrc$[ebp+12]
	push	DWORD PTR _y$[ebp]
	push	DWORD PTR _x$[ebp]
	call	?__GetClipRect@@YAHHHHHPAUtagRECT@@0@Z	; __GetClipRect
	add	esp, 24					; 00000018H
	test	eax, eax
	je	$LN6@PutSpriteC

; 6079 : 
; 6080 :     /////
; 6081 :     if (g_pDDSVBuffer)

	push	esi
	mov	esi, DWORD PTR ?g_pDDSVBuffer@@3PAUIDirectDrawSurface7@@A ; g_pDDSVBuffer
	test	esi, esi
	je	$LN11@PutSpriteC

; 5926 : 	ZeroMemory(&ddbltfx, sizeof(ddbltfx));

	push	100					; 00000064H
	lea	eax, DWORD PTR _ddbltfx$1[ebp]
	push	0
	push	eax
	call	_memset

; 5927 : 	ddbltfx.dwSize = sizeof(ddbltfx);
; 5928 : 	ddbltfx.dwFillColor = dwColor;

	mov	eax, DWORD PTR _ddsdVBF$[ebp+64]

; 5929 : 
; 5930 : 	HRESULT ddrval = lpDDSDest->Blt(lpRect, NULL, NULL, DDBLT_WAIT | DDBLT_COLORFILL, &ddbltfx);

	lea	ecx, DWORD PTR _ddbltfx$1[ebp]
	add	esp, 12					; 0000000cH
	mov	DWORD PTR _ddbltfx$1[ebp+80], eax
	mov	eax, DWORD PTR [esi]
	mov	DWORD PTR _ddbltfx$1[ebp], 100		; 00000064H
	push	ecx
	push	16778240				; 01000400H
	push	0
	push	0
	lea	ecx, DWORD PTR _rSrc$[ebp]
	push	ecx
	push	esi
	call	DWORD PTR [eax+20]

; 5931 : 	if (ddrval != DD_OK) DDERRCHK(ddrval);

	test	eax, eax
	je	SHORT $LN9@PutSpriteC
	push	5931					; 0000172bH
	push	OFFSET ??_C@_0EE@LHDKHKAN@c?3?2users?2administrator?2desktop?2@
	push	eax
	call	?___DDError@@YAHJPADH@Z			; ___DDError
	add	esp, 12					; 0000000cH
$LN9@PutSpriteC:

; 6082 :     {
; 6083 : 		//// DDSVBuffer를 컬러키로 채운다 ( Clean Up )
; 6084 :         _FillRectEx(g_pDDSVBuffer, &rSrc, ddsdVBF.ddckCKSrcBlt.dwColorSpaceLowValue);
; 6085 : 
; 6086 : 		//// 소스표면을 DDSVBuffer로 전송 ( 컬러키1 )
; 6087 :         HRESULT ddrval = g_pDDSVBuffer->Blt(&rSrc, lpDDS, &rSrc, DDBLT_KEYSRC|DDBLT_WAIT, NULL);

	mov	eax, DWORD PTR ?g_pDDSVBuffer@@3PAUIDirectDrawSurface7@@A ; g_pDDSVBuffer
	lea	edx, DWORD PTR _rSrc$[ebp]
	push	0
	push	16809984				; 01008000H
	push	edx
	mov	ecx, DWORD PTR [eax]
	push	edi
	push	edx
	push	eax
	call	DWORD PTR [ecx+20]

; 6088 :         if (ddrval != DD_OK) DDERRCHK(ddrval);

	test	eax, eax
	je	SHORT $LN5@PutSpriteC
	push	6088					; 000017c8H
	push	OFFSET ??_C@_0EE@LHDKHKAN@c?3?2users?2administrator?2desktop?2@
	push	eax
	call	?___DDError@@YAHJPADH@Z			; ___DDError
	add	esp, 12					; 0000000cH
$LN5@PutSpriteC:

; 6089 : 
; 6090 : 		//// DDSVBuffer를 목적표면( 2차표면 )으로 전송 ( 컬러키2 )
; 6091 :         ddrval = g_pDDSBack->Blt(&rcDst, g_pDDSVBuffer, &rSrc, DDBLT_KEYSRC|DDBLT_WAIT, NULL);

	mov	eax, DWORD PTR ?g_pDDSBack@@3PAUIDirectDrawSurface7@@A ; g_pDDSBack
	lea	edx, DWORD PTR _rSrc$[ebp]
	push	0
	push	16809984				; 01008000H
	push	edx
	push	DWORD PTR ?g_pDDSVBuffer@@3PAUIDirectDrawSurface7@@A ; g_pDDSVBuffer
	mov	ecx, DWORD PTR [eax]
	lea	edx, DWORD PTR _rcDst$[ebp]
	push	edx
	push	eax
	call	DWORD PTR [ecx+20]

; 6092 :         if (ddrval != DD_OK) DDERRCHK(ddrval);	

	test	eax, eax
	je	SHORT $LN11@PutSpriteC
	push	6092					; 000017ccH
	push	OFFSET ??_C@_0EE@LHDKHKAN@c?3?2users?2administrator?2desktop?2@
	push	eax
	call	?___DDError@@YAHJPADH@Z			; ___DDError
	add	esp, 12					; 0000000cH
$LN11@PutSpriteC:
	pop	esi
$LN6@PutSpriteC:

; 6093 :     }
; 6094 :     else
; 6095 :     {
; 6096 : 		//// 에뮬레이션
; 6097 :     }
; 6098 : }

	mov	ecx, DWORD PTR __$ArrayPad$[ebp]
	xor	ecx, ebp
	pop	edi
	call	@__security_check_cookie@4
	mov	esp, ebp
	pop	ebp
	ret	0
?__PutSpriteCk@@YAXPAUIDirectDrawSurface7@@HH@Z ENDP	; __PutSpriteCk
_TEXT	ENDS
; Function compile flags: /Ogtp
; File c:\users\administrator\desktop\김지훈 - 미러월드\1.src\dxwframe.cpp
;	COMDAT ?__CreateFastSBuffer2@@YAHKKK@Z
_TEXT	SEGMENT
_dwWidth$ = 8						; size = 4
_dwHeight$ = 12						; size = 4
_rgb$ = 16						; size = 4
?__CreateFastSBuffer2@@YAHKKK@Z PROC			; __CreateFastSBuffer2, COMDAT

; 6036 : {

	push	ebp
	mov	ebp, esp

; 6037 : 	HRESULT ddrval;
; 6038 : 
; 6039 :     if (g_pDDSSBuffer2) 

	mov	ecx, DWORD PTR ?g_pDDSSBuffer2@@3PAUIDirectDrawSurface7@@A ; g_pDDSSBuffer2
	test	ecx, ecx
	je	SHORT $LN3@CreateFast

; 6040 : 	{
; 6041 : 		ddrval = g_pDDSSBuffer2->Release();

	mov	eax, DWORD PTR [ecx]
	push	ecx
	call	DWORD PTR [eax+8]

; 6042 : 		if (ddrval != DD_OK) { DDERRCHK(ddrval); return FALSE; }

	test	eax, eax
	je	SHORT $LN3@CreateFast
	push	6042					; 0000179aH
	push	OFFSET ??_C@_0EE@LHDKHKAN@c?3?2users?2administrator?2desktop?2@
	push	eax
	call	?___DDError@@YAHJPADH@Z			; ___DDError
	add	esp, 12					; 0000000cH
$LN8@CreateFast:

; 6055 : }

	xor	eax, eax
	pop	ebp
	ret	0
$LN3@CreateFast:

; 6043 : 	}
; 6044 : 
; 6045 :     g_pDDSSBuffer2 = __CreateSurface(dwWidth, dwHeight, FALSE);

	push	0
	push	DWORD PTR _dwHeight$[ebp]
	push	DWORD PTR _dwWidth$[ebp]
	call	?__CreateSurface@@YAPAUIDirectDrawSurface7@@KKH@Z ; __CreateSurface
	add	esp, 12					; 0000000cH
	mov	DWORD PTR ?g_pDDSSBuffer2@@3PAUIDirectDrawSurface7@@A, eax ; g_pDDSSBuffer2

; 6046 :     if (!g_pDDSSBuffer2) return FALSE;

	test	eax, eax
	je	SHORT $LN8@CreateFast

; 6047 : 
; 6048 : 	if (g_dwRGBBitCount >= 16)

	cmp	DWORD PTR ?g_dwRGBBitCount@@3KA, 16	; g_dwRGBBitCount, 00000010H
	jb	SHORT $LN6@CreateFast

; 6049 : 	{		
; 6050 : 		ddrval = DDSetColorKey(g_pDDSSBuffer2, rgb);

	push	DWORD PTR _rgb$[ebp]
	push	eax
	call	_DDSetColorKey
	add	esp, 8

; 6051 : 		if (ddrval != DD_OK) DDERRCHK(ddrval);

	test	eax, eax
	je	SHORT $LN6@CreateFast
	push	6051					; 000017a3H
	push	OFFSET ??_C@_0EE@LHDKHKAN@c?3?2users?2administrator?2desktop?2@
	push	eax
	call	?___DDError@@YAHJPADH@Z			; ___DDError
	add	esp, 12					; 0000000cH
$LN6@CreateFast:

; 6052 : 	}
; 6053 : 
; 6054 :     return TRUE;

	mov	eax, 1

; 6055 : }

	pop	ebp
	ret	0
?__CreateFastSBuffer2@@YAHKKK@Z ENDP			; __CreateFastSBuffer2
_TEXT	ENDS
; Function compile flags: /Ogtp
; File c:\users\administrator\desktop\김지훈 - 미러월드\1.src\dxwframe.cpp
;	COMDAT ?__CreateFastSBuffer@@YAHKKK@Z
_TEXT	SEGMENT
_dwWidth$ = 8						; size = 4
_dwHeight$ = 12						; size = 4
_rgb$ = 16						; size = 4
?__CreateFastSBuffer@@YAHKKK@Z PROC			; __CreateFastSBuffer, COMDAT

; 6014 : {

	push	ebp
	mov	ebp, esp

; 6015 : 	HRESULT ddrval;
; 6016 : 
; 6017 :     if (g_pDDSSBuffer) 

	mov	ecx, DWORD PTR ?g_pDDSSBuffer@@3PAUIDirectDrawSurface7@@A ; g_pDDSSBuffer
	test	ecx, ecx
	je	SHORT $LN3@CreateFast

; 6018 : 	{
; 6019 : 		ddrval = g_pDDSSBuffer->Release();

	mov	eax, DWORD PTR [ecx]
	push	ecx
	call	DWORD PTR [eax+8]

; 6020 : 		if (ddrval != DD_OK) { DDERRCHK(ddrval); return FALSE; }

	test	eax, eax
	je	SHORT $LN3@CreateFast
	push	6020					; 00001784H
	push	OFFSET ??_C@_0EE@LHDKHKAN@c?3?2users?2administrator?2desktop?2@
	push	eax
	call	?___DDError@@YAHJPADH@Z			; ___DDError
	add	esp, 12					; 0000000cH
$LN8@CreateFast:

; 6033 : }

	xor	eax, eax
	pop	ebp
	ret	0
$LN3@CreateFast:

; 6021 : 	}
; 6022 : 
; 6023 :     g_pDDSSBuffer = __CreateSurface(dwWidth, dwHeight, FALSE);

	push	0
	push	DWORD PTR _dwHeight$[ebp]
	push	DWORD PTR _dwWidth$[ebp]
	call	?__CreateSurface@@YAPAUIDirectDrawSurface7@@KKH@Z ; __CreateSurface
	add	esp, 12					; 0000000cH
	mov	DWORD PTR ?g_pDDSSBuffer@@3PAUIDirectDrawSurface7@@A, eax ; g_pDDSSBuffer

; 6024 :     if (!g_pDDSSBuffer) return FALSE;

	test	eax, eax
	je	SHORT $LN8@CreateFast

; 6025 : 
; 6026 : 	if (g_dwRGBBitCount >= 16)

	cmp	DWORD PTR ?g_dwRGBBitCount@@3KA, 16	; g_dwRGBBitCount, 00000010H
	jb	SHORT $LN6@CreateFast

; 6027 : 	{		
; 6028 : 		ddrval = DDSetColorKey(g_pDDSSBuffer, rgb);

	push	DWORD PTR _rgb$[ebp]
	push	eax
	call	_DDSetColorKey
	add	esp, 8

; 6029 : 		if (ddrval != DD_OK) DDERRCHK(ddrval);

	test	eax, eax
	je	SHORT $LN6@CreateFast
	push	6029					; 0000178dH
	push	OFFSET ??_C@_0EE@LHDKHKAN@c?3?2users?2administrator?2desktop?2@
	push	eax
	call	?___DDError@@YAHJPADH@Z			; ___DDError
	add	esp, 12					; 0000000cH
$LN6@CreateFast:

; 6030 : 	}
; 6031 : 
; 6032 :     return TRUE;

	mov	eax, 1

; 6033 : }

	pop	ebp
	ret	0
?__CreateFastSBuffer@@YAHKKK@Z ENDP			; __CreateFastSBuffer
_TEXT	ENDS
; Function compile flags: /Ogtp
; File c:\users\administrator\desktop\김지훈 - 미러월드\1.src\dxwframe.cpp
;	COMDAT ?__CreateFastVBuffer@@YAHKKK@Z
_TEXT	SEGMENT
_dwWidth$ = 8						; size = 4
_dwHeight$ = 12						; size = 4
_rgb$ = 16						; size = 4
?__CreateFastVBuffer@@YAHKKK@Z PROC			; __CreateFastVBuffer, COMDAT

; 5992 : {

	push	ebp
	mov	ebp, esp

; 5993 : 	HRESULT ddrval;
; 5994 : 
; 5995 :     if (g_pDDSVBuffer) 

	mov	ecx, DWORD PTR ?g_pDDSVBuffer@@3PAUIDirectDrawSurface7@@A ; g_pDDSVBuffer
	test	ecx, ecx
	je	SHORT $LN3@CreateFast

; 5996 : 	{
; 5997 : 		ddrval = g_pDDSVBuffer->Release();

	mov	eax, DWORD PTR [ecx]
	push	ecx
	call	DWORD PTR [eax+8]

; 5998 : 		if (ddrval != DD_OK) { DDERRCHK(ddrval); return FALSE; }

	test	eax, eax
	je	SHORT $LN3@CreateFast
	push	5998					; 0000176eH
	push	OFFSET ??_C@_0EE@LHDKHKAN@c?3?2users?2administrator?2desktop?2@
	push	eax
	call	?___DDError@@YAHJPADH@Z			; ___DDError
	add	esp, 12					; 0000000cH
$LN8@CreateFast:

; 6011 : }

	xor	eax, eax
	pop	ebp
	ret	0
$LN3@CreateFast:

; 5999 : 	}
; 6000 : 
; 6001 :     g_pDDSVBuffer = __CreateSurface(dwWidth, dwHeight, TRUE);

	push	1
	push	DWORD PTR _dwHeight$[ebp]
	push	DWORD PTR _dwWidth$[ebp]
	call	?__CreateSurface@@YAPAUIDirectDrawSurface7@@KKH@Z ; __CreateSurface
	add	esp, 12					; 0000000cH
	mov	DWORD PTR ?g_pDDSVBuffer@@3PAUIDirectDrawSurface7@@A, eax ; g_pDDSVBuffer

; 6002 :     if (!g_pDDSVBuffer) return FALSE;

	test	eax, eax
	je	SHORT $LN8@CreateFast

; 6003 : 
; 6004 : 	if (g_dwRGBBitCount >= 16)

	cmp	DWORD PTR ?g_dwRGBBitCount@@3KA, 16	; g_dwRGBBitCount, 00000010H
	jb	SHORT $LN6@CreateFast

; 6005 : 	{		
; 6006 : 		ddrval = DDSetColorKey(g_pDDSVBuffer, rgb);

	push	DWORD PTR _rgb$[ebp]
	push	eax
	call	_DDSetColorKey
	add	esp, 8

; 6007 : 		if (ddrval != DD_OK) DDERRCHK(ddrval);

	test	eax, eax
	je	SHORT $LN6@CreateFast
	push	6007					; 00001777H
	push	OFFSET ??_C@_0EE@LHDKHKAN@c?3?2users?2administrator?2desktop?2@
	push	eax
	call	?___DDError@@YAHJPADH@Z			; ___DDError
	add	esp, 12					; 0000000cH
$LN6@CreateFast:

; 6008 : 	}
; 6009 : 
; 6010 :     return TRUE;

	mov	eax, 1

; 6011 : }

	pop	ebp
	ret	0
?__CreateFastVBuffer@@YAHKKK@Z ENDP			; __CreateFastVBuffer
_TEXT	ENDS
; Function compile flags: /Ogtp
; File c:\users\administrator\desktop\김지훈 - 미러월드\1.src\dxwframe.cpp
;	COMDAT ?__GetClipRect@@YAHHHHHPAUtagRECT@@0@Z
_TEXT	SEGMENT
_x$ = 8							; size = 4
tv301 = 12						; size = 4
tv293 = 12						; size = 4
tv290 = 12						; size = 4
_y$ = 12						; size = 4
tv302 = 16						; size = 4
_nWidth$ = 16						; size = 4
_nHeight$ = 20						; size = 4
_lprcSrc$ = 24						; size = 4
_lprcDst$ = 28						; size = 4
?__GetClipRect@@YAHHHHHPAUtagRECT@@0@Z PROC		; __GetClipRect, COMDAT

; 5941 : {

	push	ebp
	mov	ebp, esp

; 5942 :     ///// 표면의 끝 좌표를 구한다
; 5943 : 	int xEnd = x + nWidth;
; 5944 : 	int yEnd = y + nHeight;

	mov	eax, DWORD PTR _nHeight$[ebp]
	push	ebx
	mov	ebx, DWORD PTR _x$[ebp]
	push	esi
	mov	esi, DWORD PTR _nWidth$[ebp]
	push	edi
	mov	edi, DWORD PTR _y$[ebp]
	add	eax, edi
	lea	ecx, DWORD PTR [ebx+esi]

; 5945 : 
; 5946 : 	///// 클립핑 영역을 구한다    
; 5947 : 	RECT rW = { 0, 0, HRES, VRES };

	cmp	ebx, 1024				; 00000400H

; 5948 : 
; 5949 :     ///// 표면이 스크린 밖으로 나가면 출력하지 않는다
; 5950 : 	if (x >= rW.right   || y >= rW.bottom) return FALSE;

	jge	$LN3@GetClipRec
	cmp	edi, 768				; 00000300H
	jge	$LN3@GetClipRec

; 5951 : 	if (xEnd <= rW.left || yEnd <= rW.top) return FALSE;

	test	ecx, ecx
	jle	$LN3@GetClipRec
	test	eax, eax
	jle	$LN3@GetClipRec

; 5952 : 
; 5953 : 	///// 오프 스크린의 사각영역을 감소 시켜 클리핑영역을 구현한다
; 5954 :     RECT rS = { 0, 0, nWidth, nHeight };
; 5955 : 
; 5956 : 	if (x < rW.left)      { rS.left   -= x; }
; 5957 : 	if (y < rW.top)       { rS.top    -= y; }

	mov	edx, ebx
	mov	DWORD PTR tv290[ebp], 0
	neg	edx
	test	ebx, ebx
	cmovns	edx, DWORD PTR tv290[ebp]
	mov	DWORD PTR tv302[ebp], edx

; 5958 : 	if (xEnd > rW.right)  { rS.right  -= (xEnd - rW.right); }	

	mov	edx, edi
	neg	edx
	mov	DWORD PTR tv293[ebp], 0
	test	edi, edi
	cmovns	edx, DWORD PTR tv293[ebp]
	mov	DWORD PTR tv301[ebp], edx
	mov	edx, DWORD PTR _nHeight$[ebp]
	cmp	ecx, 1024				; 00000400H
	jle	SHORT $LN8@GetClipRec
	sub	esi, ecx
	add	esi, 1024				; 00000400H
$LN8@GetClipRec:

; 5959 : 	if (yEnd > rW.bottom) { rS.bottom -= (yEnd - rW.bottom); }

	cmp	eax, 768				; 00000300H
	jle	SHORT $LN9@GetClipRec
	sub	edx, eax
	add	edx, 768				; 00000300H
$LN9@GetClipRec:

; 5960 : 
; 5961 :     ///// 소스의 유효사각여부
; 5962 : 	//if (IsRectEmpty(&rS)) return FALSE;
; 5963 : 
; 5964 :     //CopyRect(lprcSrc, &rS);
; 5965 : 	lprcSrc->left   = rS.left;

	mov	eax, DWORD PTR _lprcSrc$[ebp]

; 5966 : 	lprcSrc->top    = rS.top;

	mov	ebx, DWORD PTR tv301[ebp]
	mov	ecx, DWORD PTR tv302[ebp]
	mov	DWORD PTR [eax+4], ebx

; 5967 : 	lprcSrc->right  = rS.right;
; 5968 : 	lprcSrc->bottom = rS.bottom;
; 5969 : 	
; 5970 : 	//SetRect(lprcDst, x+rS.left, y+rS.top, x+rS.right, y+rS.bottom);
; 5971 :     lprcDst->left  = x+rS.left;

	mov	ebx, DWORD PTR _x$[ebp]
	mov	DWORD PTR [eax], ecx
	mov	DWORD PTR [eax+8], esi
	mov	DWORD PTR [eax+12], edx
	lea	eax, DWORD PTR [ecx+ebx]
	mov	ecx, DWORD PTR _lprcDst$[ebp]
	mov	DWORD PTR [ecx], eax

; 5972 :     lprcDst->top   = y+rS.top;

	mov	eax, DWORD PTR tv301[ebp]
	add	eax, edi
	mov	DWORD PTR [ecx+4], eax

; 5973 :     lprcDst->right = x+rS.right;

	lea	eax, DWORD PTR [esi+ebx]
	mov	DWORD PTR [ecx+8], eax

; 5974 :     lprcDst->bottom= y+rS.bottom;

	lea	eax, DWORD PTR [edx+edi]
	pop	edi

; 5975 :     
; 5976 :     return TRUE;
; 5977 : }

	pop	esi
	mov	DWORD PTR [ecx+12], eax
	mov	eax, 1
	pop	ebx
	pop	ebp
	ret	0
$LN3@GetClipRec:
	pop	edi
	pop	esi
	xor	eax, eax
	pop	ebx
	pop	ebp
	ret	0
?__GetClipRect@@YAHHHHHPAUtagRECT@@0@Z ENDP		; __GetClipRect
_TEXT	ENDS
; Function compile flags: /Ogtp
; File c:\users\administrator\desktop\김지훈 - 미러월드\1.src\dxwframe.cpp
;	COMDAT ?__DDSSetColorKeyEx@@YAHPAUIDirectDrawSurface7@@KK@Z
_TEXT	SEGMENT
_ddck$ = -8						; size = 8
_lpDDSDest$ = 8						; size = 4
_rgb1$ = 12						; size = 4
_rgb2$ = 16						; size = 4
?__DDSSetColorKeyEx@@YAHPAUIDirectDrawSurface7@@KK@Z PROC ; __DDSSetColorKeyEx, COMDAT

; 5981 : {

	push	ebp
	mov	ebp, esp
	sub	esp, 8
	push	esi

; 5982 :     DDCOLORKEY              ddck;
; 5983 : 
; 5984 :     ddck.dwColorSpaceLowValue = DDColorMatch(lpDDSDest, rgb1);

	push	DWORD PTR _rgb1$[ebp]
	mov	esi, DWORD PTR _lpDDSDest$[ebp]
	push	esi
	call	_DDColorMatch

; 5985 :     ddck.dwColorSpaceHighValue = DDColorMatch(lpDDSDest, rgb2);

	push	DWORD PTR _rgb2$[ebp]
	mov	DWORD PTR _ddck$[ebp], eax
	push	esi
	call	_DDColorMatch
	add	esp, 16					; 00000010H
	mov	DWORD PTR _ddck$[ebp+4], eax

; 5986 : 	HRESULT ddrval = lpDDSDest->SetColorKey(DDCKEY_SRCBLT | DDCKEY_COLORSPACE, &ddck);

	mov	eax, DWORD PTR [esi]
	lea	ecx, DWORD PTR _ddck$[ebp]
	push	ecx
	push	9
	push	esi
	call	DWORD PTR [eax+116]
	pop	esi

; 5987 : 	if (ddrval != DD_OK) { return DDERRCHK(ddrval); }

	test	eax, eax
	je	SHORT $LN2@DDSSetColo
	push	5987					; 00001763H
	push	OFFSET ??_C@_0EE@LHDKHKAN@c?3?2users?2administrator?2desktop?2@
	push	eax
	call	?___DDError@@YAHJPADH@Z			; ___DDError
	add	esp, 12					; 0000000cH

; 5989 : }

	mov	esp, ebp
	pop	ebp
	ret	0
$LN2@DDSSetColo:

; 5988 : 	return TRUE;    

	mov	eax, 1

; 5989 : }

	mov	esp, ebp
	pop	ebp
	ret	0
?__DDSSetColorKeyEx@@YAHPAUIDirectDrawSurface7@@KK@Z ENDP ; __DDSSetColorKeyEx
_TEXT	ENDS
; Function compile flags: /Ogtp
; File c:\users\administrator\desktop\김지훈 - 미러월드\1.src\dxwframe.cpp
;	COMDAT ?__PutSpriteLockFastEx16@@YAXPAUIDirectDrawSurface7@@HH@Z
_TEXT	SEGMENT
tv742 = -448						; size = 4
tv743 = -444						; size = 4
tv740 = -440						; size = 4
_dwWidthSrc$1$ = -436					; size = 4
_lpDDS$GSCopy$1$ = -432					; size = 4
_dwColorSpaceLowValue$1$ = -428				; size = 4
_dwHeight$1$ = -424					; size = 4
_lpDDSDst$1$ = -420					; size = 4
_dwColorSpaceLowValueMixed$1$ = -416			; size = 4
_lpDDSSrc$1$ = -412					; size = 4
_ddsdDst$ = -408					; size = 124
_ddsdSrc$ = -284					; size = 124
_ddsd$ = -160						; size = 124
_rcDst$ = -36						; size = 16
_rcSrc$ = -20						; size = 16
__$ArrayPad$ = -4					; size = 4
_lpDDS$ = 8						; size = 4
_x$ = 12						; size = 4
_y$ = 16						; size = 4
?__PutSpriteLockFastEx16@@YAXPAUIDirectDrawSurface7@@HH@Z PROC ; __PutSpriteLockFastEx16, COMDAT

; 5037 : {

	push	ebp
	mov	ebp, esp
	sub	esp, 448				; 000001c0H
	mov	eax, DWORD PTR ___security_cookie
	xor	eax, ebp
	mov	DWORD PTR __$ArrayPad$[ebp], eax
	mov	ecx, DWORD PTR _lpDDS$[ebp]

; 5038 : 	//// 클립핑 영역구하기
; 5039 : 	//// 표면의 정보 얻기
; 5040 : 	DDSURFACEDESC2 ddsd;
; 5041 :     ddsd.dwSize = sizeof(ddsd);
; 5042 :     //ddsd.dwFlags = DDSD_HEIGHT | DDSD_WIDTH;
; 5043 : 	lpDDS->GetSurfaceDesc(&ddsd);

	lea	edx, DWORD PTR _ddsd$[ebp]
	push	ebx
	push	esi
	push	edi
	mov	eax, DWORD PTR [ecx]
	push	edx
	push	ecx
	mov	DWORD PTR _lpDDS$GSCopy$1$[ebp], ecx
	mov	DWORD PTR _ddsd$[ebp], 124		; 0000007cH
	call	DWORD PTR [eax+88]

; 5044 : 
; 5045 : 	//// 스크린좌표의 RECT를 구한다
; 5046 : 	RECT rcDst = { x, y, x+ddsd.dwWidth, y+ddsd.dwHeight };

	mov	esi, DWORD PTR _x$[ebp]
	mov	eax, DWORD PTR _y$[ebp]
	mov	edx, DWORD PTR _ddsd$[ebp+12]
	mov	ecx, DWORD PTR _ddsd$[ebp+8]
	mov	DWORD PTR _rcDst$[ebp], esi
	mov	DWORD PTR _rcDst$[ebp+4], eax

; 5047 : 	RECT rcSrc = { 0, 0, ddsd.dwWidth, ddsd.dwHeight };

	mov	DWORD PTR _rcSrc$[ebp], 0
	lea	ebx, DWORD PTR [edx+esi]
	mov	DWORD PTR _rcDst$[ebp+8], ebx
	lea	edi, DWORD PTR [ecx+eax]
	mov	DWORD PTR _rcDst$[ebp+12], edi
	mov	DWORD PTR _rcSrc$[ebp+4], 0
	mov	DWORD PTR _rcSrc$[ebp+8], edx
	mov	DWORD PTR _rcSrc$[ebp+12], ecx

; 5048 : 
; 5049 : 	//// 스크린 밖으로 나가면 출력하지 않는다
; 5050 : 	if (x >= HRES || y >= VRES) return;

	cmp	esi, 1024				; 00000400H
	jge	$LN13@PutSpriteL
	cmp	eax, 768				; 00000300H
	jge	$LN13@PutSpriteL

; 5051 : 	if (rcDst.right <= 0 || rcDst.bottom <= 0) return;

	test	ebx, ebx
	jle	$LN13@PutSpriteL
	test	edi, edi
	jle	$LN13@PutSpriteL

; 5052 : 	
; 5053 : 	//// 스프라이트가 스크린 밖으로 나간 만큼 출력하지 않는다
; 5054 : 	//// 오프 스크린의 사각영역을 감소 시켜 클리핑을 구현한다	
; 5055 : 
; 5056 : 	//// 수평 보정
; 5057 : 	if (x < 0)

	test	esi, esi
	jns	SHORT $LN14@PutSpriteL

; 5058 : 	{
; 5059 : 		// 좌변을 줄인다. rcSrc.left += 넘어간 크기, abs(x)
; 5060 : 		rcSrc.left -= x;

	neg	esi

; 5061 : 		rcDst.left=x=0;		

	mov	DWORD PTR _rcDst$[ebp], 0
	mov	DWORD PTR _rcSrc$[ebp], esi
	jmp	SHORT $LN16@PutSpriteL
$LN14@PutSpriteL:

; 5062 : 	}
; 5063 : 	else if (rcDst.right >= HRES)

	cmp	ebx, 1024				; 00000400H
	jl	SHORT $LN16@PutSpriteL

; 5064 : 	{
; 5065 : 		// 우변을 줄인다. rcSrc.right -= 넘어간 크기
; 5066 : 		int nOverSize = (rcDst.right - HRES);		
; 5067 : 		rcSrc.right -= nOverSize;

	sub	edx, ebx

; 5068 : 		rcDst.right -= nOverSize;

	mov	DWORD PTR _rcDst$[ebp+8], 1024		; 00000400H
	add	edx, 1024				; 00000400H
	mov	DWORD PTR _rcSrc$[ebp+8], edx
$LN16@PutSpriteL:

; 5069 : 	}
; 5070 : 	//// 수직 보정
; 5071 : 	if (y < 0)

	test	eax, eax
	jns	SHORT $LN17@PutSpriteL

; 5072 : 	{
; 5073 : 		// 상변을 줄인다. rcSrc.top += 넘어간 크기, abs(y)
; 5074 : 		rcSrc.top -= y;

	neg	eax

; 5075 : 		rcDst.top=y=0;

	mov	DWORD PTR _rcDst$[ebp+4], 0
	mov	DWORD PTR _rcSrc$[ebp+4], eax
	jmp	SHORT $LN19@PutSpriteL
$LN17@PutSpriteL:

; 5076 : 	}
; 5077 : 	else if (rcDst.bottom >= VRES )

	cmp	edi, 768				; 00000300H
	jl	SHORT $LN19@PutSpriteL

; 5078 : 	{
; 5079 : 		// 하변을 줄인다. rcSrc.bottom -= 넘어간 크기 
; 5080 : 		int nOverSize = (rcDst.bottom - VRES);
; 5081 : 		rcSrc.bottom -= nOverSize;

	sub	ecx, edi

; 5082 : 		rcDst.bottom -= nOverSize;

	mov	DWORD PTR _rcDst$[ebp+12], 768		; 00000300H
	add	ecx, 768				; 00000300H
	mov	DWORD PTR _rcSrc$[ebp+12], ecx
$LN19@PutSpriteL:

; 5083 : 	}
; 5084 : 
; 5085 : 	////////////////////// 
; 5086 : 	DWORD RGBRGB;
; 5087 : 	DWORD sRGB1, sRGB2;
; 5088 : 
; 5089 : 	DWORD ix, iy;
; 5090 :     DDSURFACEDESC2 ddsdSrc, ddsdDst;
; 5091 : 
; 5092 : 	//// 소스표면 Lock
; 5093 : 	ZeroMemory(&ddsdSrc, sizeof(ddsdSrc));	

	push	120					; 00000078H
	lea	eax, DWORD PTR _ddsdSrc$[ebp+4]
	push	0
	push	eax
	call	_memset

; 5094 : 	ddsdSrc.dwSize = sizeof(ddsdSrc);
; 5095 : 	HRESULT ddrval = lpDDS->Lock(&rcSrc, &ddsdSrc, DDLOCK_READONLY|DDLOCK_WAIT, NULL);

	mov	ebx, DWORD PTR _lpDDS$GSCopy$1$[ebp]
	lea	ecx, DWORD PTR _ddsdSrc$[ebp]
	add	esp, 12					; 0000000cH
	mov	DWORD PTR _ddsdSrc$[ebp], 124		; 0000007cH
	mov	eax, DWORD PTR [ebx]
	push	0
	push	17					; 00000011H
	push	ecx
	lea	ecx, DWORD PTR _rcSrc$[ebp]
	push	ecx
	push	ebx
	call	DWORD PTR [eax+100]

; 5096 :     if (ddrval != DD_OK) { DDERRCHK(ddrval); return; }

	test	eax, eax
	je	SHORT $LN20@PutSpriteL
	push	5096					; 000013e8H
	push	OFFSET ??_C@_0EE@LHDKHKAN@c?3?2users?2administrator?2desktop?2@
	push	eax
	call	?___DDError@@YAHJPADH@Z			; ___DDError
	add	esp, 12					; 0000000cH
	pop	edi

; 5213 : }

	pop	esi
	pop	ebx
	mov	ecx, DWORD PTR __$ArrayPad$[ebp]
	xor	ecx, ebp
	call	@__security_check_cookie@4
	mov	esp, ebp
	pop	ebp
	ret	0
$LN20@PutSpriteL:

; 5097 :     
; 5098 :     //// 목적표면의 RECT
; 5099 :     //RECT rcDest = { x, y, x+ddsdSrc.dwWidth, y+ddsdSrc.dwHeight };
; 5100 : 
; 5101 : 	//// 목적표면 Lock
; 5102 : 	ZeroMemory(&ddsdDst, sizeof(ddsdDst));	

	push	120					; 00000078H
	lea	eax, DWORD PTR _ddsdDst$[ebp+4]
	push	0
	push	eax
	call	_memset

; 5103 : 	ddsdDst.dwSize = sizeof(ddsdDst);
; 5104 : 	ddrval = g_pDDSBack->Lock(&rcDst, &ddsdDst, DDLOCK_WRITEONLY|DDLOCK_WAIT, NULL);

	mov	eax, DWORD PTR ?g_pDDSBack@@3PAUIDirectDrawSurface7@@A ; g_pDDSBack
	lea	edx, DWORD PTR _ddsdDst$[ebp]
	add	esp, 12					; 0000000cH
	mov	DWORD PTR _ddsdDst$[ebp], 124		; 0000007cH
	mov	ecx, DWORD PTR [eax]
	push	0
	push	33					; 00000021H
	push	edx
	lea	edx, DWORD PTR _rcDst$[ebp]
	push	edx
	push	eax
	call	DWORD PTR [ecx+100]
	mov	esi, eax

; 5105 :     if (ddrval != DD_OK)

	test	esi, esi
	je	SHORT $LN21@PutSpriteL

; 5106 :     {
; 5107 :     	//// 소스표면은 Lock 상태이므로 Unlock
; 5108 :         lpDDS->Unlock(&rcSrc);

	mov	ecx, DWORD PTR [ebx]
	lea	eax, DWORD PTR _rcSrc$[ebp]
	push	eax
	push	ebx
	call	DWORD PTR [ecx+128]

; 5109 :         DDERRCHK(ddrval);

	push	5109					; 000013f5H
	push	OFFSET ??_C@_0EE@LHDKHKAN@c?3?2users?2administrator?2desktop?2@
	push	esi
	call	?___DDError@@YAHJPADH@Z			; ___DDError
	add	esp, 12					; 0000000cH
	pop	edi

; 5213 : }

	pop	esi
	pop	ebx
	mov	ecx, DWORD PTR __$ArrayPad$[ebp]
	xor	ecx, ebp
	call	@__security_check_cookie@4
	mov	esp, ebp
	pop	ebp
	ret	0
$LN21@PutSpriteL:

; 5110 :         return;
; 5111 :     }
; 5112 : 
; 5113 : 	//// 표면의 주소
; 5114 : 	DWORD* lpDDSSrc = (DWORD*) ddsdSrc.lpSurface;

	mov	esi, DWORD PTR _ddsdSrc$[ebp+36]

; 5115 : 	DWORD* lpDDSDst = (DWORD*) ddsdDst.lpSurface;
; 5116 : 	WORD*  lpDDSDstTemp;
; 5117 : 
; 5118 : 	//// 소스표면의 컬러키 참조
; 5119 : 	DWORD dwColorSpaceLowValue = ddsdSrc.ddckCKSrcBlt.dwColorSpaceLowValue;
; 5120 : 	
; 5121 : 	////
; 5122 : 	DWORD dwSrcPitch = ddsdSrc.lPitch >> 2; // 4바이트 정렬, /4
; 5123 : 	DWORD dwDstPitch = ddsdDst.lPitch >> 2;
; 5124 : 
; 5125 : 	DWORD dwWidthSrc = rcSrc.right-rcSrc.left;

	mov	edi, DWORD PTR _rcSrc$[ebp+8]
	sub	edi, DWORD PTR _rcSrc$[ebp]
	mov	eax, DWORD PTR _ddsdDst$[ebp+36]

; 5126 : 	DWORD dwWidth  = dwWidthSrc >> 1;       // 2개의 픽셀을 읽으므로 /2

	mov	ebx, edi
	mov	ecx, DWORD PTR _ddsdSrc$[ebp+16]

; 5127 : 	DWORD dwHeight = rcSrc.bottom-rcSrc.top;
; 5128 : 	//// 홀수폭인 경우 나머지 플래그 ( 1 픽셀 )
; 5129 : 	BOOL bIsRemain = FALSE;
; 5130 : 	if (dwWidthSrc % 2) bIsRemain = TRUE;

	and	edi, 1
	mov	edx, DWORD PTR _ddsdDst$[ebp+16]
	mov	DWORD PTR _lpDDSSrc$1$[ebp], esi
	mov	esi, DWORD PTR _rcSrc$[ebp+12]
	sub	esi, DWORD PTR _rcSrc$[ebp+4]
	mov	DWORD PTR _lpDDSDst$1$[ebp], eax
	mov	eax, DWORD PTR _ddsdSrc$[ebp+64]
	sar	ecx, 2
	sar	edx, 2
	shr	ebx, 1

; 5131 : 
; 5132 : 	//// BPP
; 5133 : 	switch(g_dwRGBBitCount)

	cmp	DWORD PTR ?g_dwRGBBitCount@@3KA, 16	; g_dwRGBBitCount, 00000010H
	mov	DWORD PTR _dwHeight$1$[ebp], esi
	mov	esi, DWORD PTR _lpDDSSrc$1$[ebp]
	mov	DWORD PTR _dwColorSpaceLowValue$1$[ebp], eax
	mov	DWORD PTR _dwWidthSrc$1$[ebp], edi
	jne	$LN5@PutSpriteL

; 5134 : 	{
; 5135 : 	case 16 :
; 5136 : 		{
; 5137 : 			//// 두개의 픽셀에 대한 컬러키 값을 구한다. 고속 판정을 위한 OR 연산
; 5138 : 			DWORD dwColorSpaceLowValueMixed = dwColorSpaceLowValue << 16 | dwColorSpaceLowValue;

	mov	edi, eax
	shl	edi, 16					; 00000010H
	or	edi, eax

; 5139 : 
; 5140 : 			if (g_dwPixelFormat == RGB565)

	cmp	DWORD PTR ?g_dwPixelFormat@@3KA, 565	; g_dwPixelFormat, 00000235H
	mov	DWORD PTR _dwColorSpaceLowValueMixed$1$[ebp], edi
	jne	$LN5@PutSpriteL

; 5141 : 			{
; 5142 : 				for (iy=0; iy < dwHeight; iy++)

	cmp	DWORD PTR _dwHeight$1$[ebp], 0
	jbe	$LN5@PutSpriteL
	lea	eax, DWORD PTR [ecx*4]
	mov	ecx, DWORD PTR _dwHeight$1$[ebp]
	mov	DWORD PTR tv743[ebp], eax
	lea	eax, DWORD PTR [edx*4]
	mov	DWORD PTR tv742[ebp], eax
	mov	eax, DWORD PTR _lpDDSDst$1$[ebp]
$LL6@PutSpriteL:

; 5143 : 				{
; 5144 : 					for (ix=0; ix < dwWidth; ix++)

	xor	edx, edx
	test	ebx, ebx
	je	$LN8@PutSpriteL
	mov	ecx, esi
	add	eax, 4
	sub	ecx, DWORD PTR _lpDDSDst$1$[ebp]
	mov	DWORD PTR tv740[ebp], ecx
	npad	2
$LL9@PutSpriteL:

; 5145 : 					{
; 5146 : 						//// 두개의 픽셀을 얻어온다
; 5147 : 						//memcpy(&RGBRGB, lpDDSSrc+ix, 4);
; 5148 : 						RGBRGB = *(lpDDSSrc+ix);

	mov	ecx, DWORD PTR [esi+edx*4]

; 5149 : 						
; 5150 : 						//// 두개의 픽셀이 컬러키이면 루프반복 ( 다음 픽셀 그룹을 얻는다 )
; 5151 : 						if (RGBRGB == dwColorSpaceLowValueMixed) continue;	

	cmp	ecx, edi
	je	SHORT $LN7@PutSpriteL

; 5152 : 						
; 5153 : 						//// 픽셀을 분리한다
; 5154 : 						sRGB1 = RGBRGB & 0x0000FFFF;
; 5155 : 						sRGB2 = RGBRGB >> 16;

	mov	esi, ecx
	movzx	edi, cx
	shr	esi, 16					; 00000010H

; 5156 : 						
; 5157 : 						//// 소스표면의 픽셀 sRGB1,2가 이미지인 경우
; 5158 : 						if (sRGB1 != dwColorSpaceLowValue && sRGB2 != dwColorSpaceLowValue)

	cmp	edi, DWORD PTR _dwColorSpaceLowValue$1$[ebp]
	je	SHORT $LN29@PutSpriteL
	cmp	esi, DWORD PTR _dwColorSpaceLowValue$1$[ebp]
	je	SHORT $LN27@PutSpriteL

; 5159 : 						{
; 5160 : 							//memcpy(lpDDSDst+ix, &RGBRGB, 4);
; 5161 : 							*(lpDDSDst+ix) = RGBRGB;							

	mov	DWORD PTR [eax-4], ecx
	jmp	SHORT $LN30@PutSpriteL
$LN27@PutSpriteL:

; 5162 : 						}						
; 5163 : 						//// 소스표면의 픽셀 sRGB1이 이미지 픽셀인 경우
; 5164 : 						// else if (sRGB1 != dwColorSpaceLowValue && sRGB2 == dwColorSpaceLowValue )
; 5165 : 						else if (sRGB1 != dwColorSpaceLowValue)
; 5166 : 						{							
; 5167 : 							lpDDSDstTemp = (WORD*)(lpDDSDst+ix);
; 5168 : 							*lpDDSDstTemp = (WORD)sRGB1;							

	mov	WORD PTR [eax-4], di

; 5169 : 						}
; 5170 : 						//// 소스표면의 픽셀 sRGB1이 이미지 픽셀인 경우
; 5171 : 						// else if (sRGB1 == dwColorSpaceLowValue && sRGB2 != dwColorSpaceLowValue )
; 5172 : 						// else if (sRGB2 != dwColorSpaceLowValue)
; 5173 : 						else 

	jmp	SHORT $LN30@PutSpriteL
$LN29@PutSpriteL:

; 5174 : 						{
; 5175 : 							lpDDSDstTemp = (WORD*)(lpDDSDst+ix);
; 5176 : 							*(lpDDSDstTemp+1) = (WORD)sRGB2;

	mov	WORD PTR [eax-2], si
$LN30@PutSpriteL:

; 5177 : 						}
; 5178 : 
; 5179 : 						//// 홀수폭, 1 픽셀
; 5180 : 						// if (bIsRemain && ix == dwWidth-1)						
; 5181 : 						if (ix == dwWidth-1)

	mov	esi, DWORD PTR _lpDDSSrc$1$[ebp]
	lea	ecx, DWORD PTR [ebx-1]
	mov	edi, DWORD PTR _dwColorSpaceLowValueMixed$1$[ebp]
	cmp	edx, ecx
	jne	SHORT $LN7@PutSpriteL

; 5182 : 						{
; 5183 : 							if (bIsRemain)

	cmp	DWORD PTR _dwWidthSrc$1$[ebp], 0
	je	SHORT $LN7@PutSpriteL

; 5184 : 							{								
; 5185 : 								sRGB1 = *(lpDDSSrc+ix+1) & 0x0000FFFF;

	mov	ecx, DWORD PTR tv740[ebp]
	movzx	ecx, WORD PTR [ecx+eax]

; 5186 : 								if (sRGB1 != dwColorSpaceLowValue)

	cmp	ecx, DWORD PTR _dwColorSpaceLowValue$1$[ebp]
	je	SHORT $LN7@PutSpriteL

; 5187 : 								{
; 5188 : 									lpDDSDstTemp = (WORD*)(lpDDSDst+ix+1);
; 5189 : 									*lpDDSDstTemp = (WORD)sRGB1;

	mov	WORD PTR [eax], cx
$LN7@PutSpriteL:

; 5143 : 				{
; 5144 : 					for (ix=0; ix < dwWidth; ix++)

	inc	edx
	add	eax, 4
	cmp	edx, ebx
	jb	SHORT $LL9@PutSpriteL
	mov	eax, DWORD PTR _lpDDSDst$1$[ebp]
	mov	ecx, DWORD PTR _dwHeight$1$[ebp]
$LN8@PutSpriteL:

; 5190 : 								}
; 5191 : 							}
; 5192 : 						}
; 5193 : 					}
; 5194 : 					lpDDSSrc += dwSrcPitch;

	add	esi, DWORD PTR tv743[ebp]

; 5195 : 					lpDDSDst += dwDstPitch;

	add	eax, DWORD PTR tv742[ebp]
	sub	ecx, 1
	mov	DWORD PTR _lpDDSSrc$1$[ebp], esi
	mov	DWORD PTR _lpDDSDst$1$[ebp], eax
	mov	DWORD PTR _dwHeight$1$[ebp], ecx
	jne	$LL6@PutSpriteL
$LN5@PutSpriteL:

; 5196 : 				}
; 5197 : 			}	
; 5198 : 			else if (g_dwPixelFormat == BGR565)
; 5199 : 			{
; 5200 : 			}
; 5201 : 			else if (g_dwPixelFormat == RGB555)
; 5202 : 			{
; 5203 : 			}
; 5204 : 			break;
; 5205 : 		}
; 5206 : 	case 24 :
; 5207 : 	case 32 : break;
; 5208 : 	}
; 5209 : 	
; 5210 : 	//// 표면 Unlock
; 5211 :     g_pDDSBack->Unlock(&rcDst);

	mov	eax, DWORD PTR ?g_pDDSBack@@3PAUIDirectDrawSurface7@@A ; g_pDDSBack
	lea	edx, DWORD PTR _rcDst$[ebp]
	push	edx
	push	eax
	mov	ecx, DWORD PTR [eax]
	call	DWORD PTR [ecx+128]

; 5212 :     lpDDS->Unlock(&rcSrc);

	mov	ecx, DWORD PTR _lpDDS$GSCopy$1$[ebp]
	lea	edx, DWORD PTR _rcSrc$[ebp]
	push	edx
	push	ecx
	mov	eax, DWORD PTR [ecx]
	call	DWORD PTR [eax+128]
$LN13@PutSpriteL:

; 5213 : }

	mov	ecx, DWORD PTR __$ArrayPad$[ebp]
	pop	edi
	pop	esi
	xor	ecx, ebp
	pop	ebx
	call	@__security_check_cookie@4
	mov	esp, ebp
	pop	ebp
	ret	0
?__PutSpriteLockFastEx16@@YAXPAUIDirectDrawSurface7@@HH@Z ENDP ; __PutSpriteLockFastEx16
_TEXT	ENDS
; Function compile flags: /Ogtp
; File c:\users\administrator\desktop\김지훈 - 미러월드\1.src\dxwframe.cpp
;	COMDAT ?__PutSpriteLockFast16@@YAXPAUIDirectDrawSurface7@@HH@Z
_TEXT	SEGMENT
tv424 = -304						; size = 4
tv425 = -300						; size = 4
_lpDDS$GSCopy$1$ = -296					; size = 4
_iy$1$ = -292						; size = 4
_lpDDSDst$1$ = -288					; size = 4
_dwWidth$1$ = -284					; size = 4
_dwColorSpaceLowValue$1$ = -280				; size = 4
_lpDDSSrc$1$ = -276					; size = 4
_dwColorSpaceLowValueMixed$1$ = -272			; size = 4
_ddsdDst$ = -268					; size = 124
_ddsdSrc$ = -144					; size = 124
_rcDest$ = -20						; size = 16
__$ArrayPad$ = -4					; size = 4
_lpDDS$ = 8						; size = 4
_x$ = 12						; size = 4
_y$ = 16						; size = 4
?__PutSpriteLockFast16@@YAXPAUIDirectDrawSurface7@@HH@Z PROC ; __PutSpriteLockFast16, COMDAT

; 4811 : {

	push	ebp
	mov	ebp, esp
	sub	esp, 304				; 00000130H
	mov	eax, DWORD PTR ___security_cookie
	xor	eax, ebp
	mov	DWORD PTR __$ArrayPad$[ebp], eax
	push	ebx
	mov	ebx, DWORD PTR _lpDDS$[ebp]

; 4812 : 	DWORD RGBRGB;
; 4813 : 	DWORD sRGB1, sRGB2;
; 4814 : 
; 4815 : 	DWORD ix, iy;
; 4816 :     DDSURFACEDESC2 ddsdSrc, ddsdDst;
; 4817 : 
; 4818 : 	//// 소스표면 Lock
; 4819 : 	ZeroMemory(&ddsdSrc, sizeof(ddsdSrc));	

	lea	eax, DWORD PTR _ddsdSrc$[ebp+4]
	push	120					; 00000078H
	push	0
	push	eax
	mov	DWORD PTR _lpDDS$GSCopy$1$[ebp], ebx
	call	_memset

; 4820 : 	ddsdSrc.dwSize = sizeof(ddsdSrc);
; 4821 : 	HRESULT ddrval = lpDDS->Lock(NULL, &ddsdSrc, DDLOCK_READONLY|DDLOCK_WAIT, NULL);

	mov	eax, DWORD PTR [ebx]
	lea	ecx, DWORD PTR _ddsdSrc$[ebp]
	add	esp, 12					; 0000000cH
	mov	DWORD PTR _ddsdSrc$[ebp], 124		; 0000007cH
	push	0
	push	17					; 00000011H
	push	ecx
	push	0
	push	ebx
	call	DWORD PTR [eax+100]

; 4822 :     if (ddrval != DD_OK) { DDERRCHK(ddrval); return; }

	test	eax, eax
	je	SHORT $LN10@PutSpriteL
	push	4822					; 000012d6H
	push	OFFSET ??_C@_0EE@LHDKHKAN@c?3?2users?2administrator?2desktop?2@
	push	eax
	call	?___DDError@@YAHJPADH@Z			; ___DDError
	add	esp, 12					; 0000000cH
	pop	ebx

; 4917 : }

	mov	ecx, DWORD PTR __$ArrayPad$[ebp]
	xor	ecx, ebp
	call	@__security_check_cookie@4
	mov	esp, ebp
	pop	ebp
	ret	0
$LN10@PutSpriteL:

; 4823 :     
; 4824 :     //// 목적표면의 RECT
; 4825 :     RECT rcDest = { x, y, x+ddsdSrc.dwWidth, y+ddsdSrc.dwHeight };

	mov	ecx, DWORD PTR _x$[ebp]
	mov	eax, DWORD PTR _ddsdSrc$[ebp+12]
	mov	edx, DWORD PTR _y$[ebp]
	add	eax, ecx
	mov	DWORD PTR _rcDest$[ebp+8], eax
	mov	eax, DWORD PTR _ddsdSrc$[ebp+8]
	push	esi
	add	eax, edx
	mov	DWORD PTR _rcDest$[ebp], ecx

; 4826 : 
; 4827 : 	//// 목적표면 Lock
; 4828 : 	ZeroMemory(&ddsdDst, sizeof(ddsdDst));	

	push	120					; 00000078H
	mov	DWORD PTR _rcDest$[ebp+12], eax
	lea	eax, DWORD PTR _ddsdDst$[ebp+4]
	push	0
	push	eax
	mov	DWORD PTR _rcDest$[ebp+4], edx
	call	_memset

; 4829 : 	ddsdDst.dwSize = sizeof(ddsdDst);
; 4830 : 	ddrval = g_pDDSBack->Lock(&rcDest, &ddsdDst, DDLOCK_WRITEONLY|DDLOCK_WAIT, NULL);

	mov	eax, DWORD PTR ?g_pDDSBack@@3PAUIDirectDrawSurface7@@A ; g_pDDSBack
	lea	edx, DWORD PTR _ddsdDst$[ebp]
	add	esp, 12					; 0000000cH
	mov	DWORD PTR _ddsdDst$[ebp], 124		; 0000007cH
	mov	ecx, DWORD PTR [eax]
	push	0
	push	33					; 00000021H
	push	edx
	lea	edx, DWORD PTR _rcDest$[ebp]
	push	edx
	push	eax
	call	DWORD PTR [ecx+100]
	mov	esi, eax

; 4831 :     if (ddrval != DD_OK)

	test	esi, esi
	je	SHORT $LN11@PutSpriteL

; 4832 :     {
; 4833 :     	//// 소스표면은 Lock 상태이므로 Unlock
; 4834 :         lpDDS->Unlock(NULL);

	mov	ecx, DWORD PTR [ebx]
	push	0
	push	ebx
	call	DWORD PTR [ecx+128]

; 4835 :         DDERRCHK(ddrval);     

	push	4835					; 000012e3H
	push	OFFSET ??_C@_0EE@LHDKHKAN@c?3?2users?2administrator?2desktop?2@
	push	esi
	call	?___DDError@@YAHJPADH@Z			; ___DDError
	add	esp, 12					; 0000000cH
	pop	esi
	pop	ebx

; 4917 : }

	mov	ecx, DWORD PTR __$ArrayPad$[ebp]
	xor	ecx, ebp
	call	@__security_check_cookie@4
	mov	esp, ebp
	pop	ebp
	ret	0
$LN11@PutSpriteL:

; 4836 :         return;
; 4837 :     }
; 4838 : 
; 4839 : 	//// 표면의 주소
; 4840 : 	DWORD* lpDDSSrc = (DWORD*) ddsdSrc.lpSurface;

	mov	eax, DWORD PTR _ddsdSrc$[ebp+36]

; 4841 : 	DWORD* lpDDSDst = (DWORD*) ddsdDst.lpSurface;
; 4842 : 	WORD*  lpDDSDstTemp;
; 4843 : 
; 4844 : 	//// 소스표면의 컬러키 참조
; 4845 : 	DWORD dwColorSpaceLowValue = ddsdSrc.ddckCKSrcBlt.dwColorSpaceLowValue;	
; 4846 : 	
; 4847 : 	DWORD dwSrcPitch = ddsdSrc.lPitch >> 2; // 4바이트 정렬, /4
; 4848 : 	DWORD dwDstPitch = ddsdDst.lPitch >> 2;

	mov	edx, DWORD PTR _ddsdDst$[ebp+16]

; 4849 : 	DWORD dwWidth  = ddsdSrc.dwWidth >> 1;   // 2개의 픽셀을 읽으므로 /2

	mov	esi, DWORD PTR _ddsdSrc$[ebp+12]
	mov	ecx, DWORD PTR _ddsdSrc$[ebp+16]
	shr	esi, 1
	push	edi
	mov	edi, DWORD PTR _ddsdDst$[ebp+36]
	mov	DWORD PTR _lpDDSSrc$1$[ebp], eax
	mov	eax, DWORD PTR _ddsdSrc$[ebp+64]
	sar	edx, 2

; 4850 : 	
; 4851 : 	//// BPP
; 4852 : 	switch(g_dwRGBBitCount)

	cmp	DWORD PTR ?g_dwRGBBitCount@@3KA, 16	; g_dwRGBBitCount, 00000010H
	mov	DWORD PTR _lpDDSDst$1$[ebp], edi
	mov	DWORD PTR _dwColorSpaceLowValue$1$[ebp], eax
	mov	DWORD PTR _dwWidth$1$[ebp], esi
	jne	$LN5@PutSpriteL

; 4853 : 	{
; 4854 : 	case 16 :
; 4855 : 		{
; 4856 : 			//// 두개의 픽셀에 대한 컬러키 값을 구한다. 고속 판정을 위한 OR 연산
; 4857 : 			DWORD dwColorSpaceLowValueMixed = dwColorSpaceLowValue << 16 | dwColorSpaceLowValue;

	mov	esi, eax
	shl	esi, 16					; 00000010H
	or	esi, eax

; 4858 : 	
; 4859 : 			if (g_dwPixelFormat == RGB565)

	cmp	DWORD PTR ?g_dwPixelFormat@@3KA, 565	; g_dwPixelFormat, 00000235H
	mov	DWORD PTR _dwColorSpaceLowValueMixed$1$[ebp], esi
	jne	$LN5@PutSpriteL

; 4860 : 			{
; 4861 : 				for (iy=0; iy < ddsdSrc.dwHeight; iy++)

	mov	eax, DWORD PTR _ddsdSrc$[ebp+8]
	xor	ebx, ebx
	mov	DWORD PTR _iy$1$[ebp], ebx
	test	eax, eax
	je	$LN33@PutSpriteL
	and	ecx, -4					; fffffffcH
	mov	DWORD PTR tv425[ebp], ecx
	lea	ecx, DWORD PTR [edx*4]
	mov	edx, DWORD PTR _dwWidth$1$[ebp]
	mov	DWORD PTR tv424[ebp], ecx
	mov	ecx, DWORD PTR _lpDDSSrc$1$[ebp]
	npad	4
$LL6@PutSpriteL:

; 4862 : 				{
; 4863 : 					for (ix=0; ix < dwWidth; ix++)

	test	edx, edx
	je	SHORT $LN8@PutSpriteL
	mov	ebx, ecx
	mov	eax, edi
	sub	ebx, edi
	mov	edi, edx
	npad	4
$LL9@PutSpriteL:

; 4864 : 					{
; 4865 : 						//// 두개의 픽셀을 얻어온다
; 4866 : 						//memcpy(&RGBRGB, lpDDSSrc+ix, 4);
; 4867 : 						RGBRGB = *(lpDDSSrc+ix);

	mov	ecx, DWORD PTR [ebx+eax]

; 4868 : 						
; 4869 : 						//// 두개의 픽셀이 컬러키이면 루프반복 ( 다음 픽셀 그룹을 얻는다 )
; 4870 : 						if (RGBRGB == dwColorSpaceLowValueMixed) continue;	

	cmp	ecx, esi
	je	SHORT $LN7@PutSpriteL

; 4871 : 						
; 4872 : 						//// 픽셀을 분리한다
; 4873 : 						sRGB1 = RGBRGB & 0x0000FFFF;
; 4874 : 						sRGB2 = RGBRGB >> 16;

	mov	edx, ecx
	movzx	esi, cx
	shr	edx, 16					; 00000010H

; 4875 : 						
; 4876 : 						//// 소스표면의 픽셀 sRGB1,2가 이미지인 경우
; 4877 : 						if (sRGB1 != dwColorSpaceLowValue && sRGB2 != dwColorSpaceLowValue)

	cmp	esi, DWORD PTR _dwColorSpaceLowValue$1$[ebp]
	je	SHORT $LN18@PutSpriteL
	cmp	edx, DWORD PTR _dwColorSpaceLowValue$1$[ebp]
	je	SHORT $LN16@PutSpriteL

; 4878 : 						{
; 4879 : 							//memcpy(lpDDSDst+ix, &RGBRGB, 4);
; 4880 : 							*(lpDDSDst+ix) = RGBRGB;							

	mov	DWORD PTR [eax], ecx
	jmp	SHORT $LN35@PutSpriteL
$LN16@PutSpriteL:

; 4881 : 						}						
; 4882 : 						//// 소스표면의 픽셀 sRGB1이 이미지 픽셀인 경우
; 4883 : 						// else if (sRGB1 != dwColorSpaceLowValue && sRGB2 == dwColorSpaceLowValue )
; 4884 : 						else if (sRGB1 != dwColorSpaceLowValue)						
; 4885 : 						{							
; 4886 : 							lpDDSDstTemp = (WORD*)(lpDDSDst+ix);
; 4887 : 							*lpDDSDstTemp = (WORD)sRGB1;							

	mov	WORD PTR [eax], si

; 4888 : 						}
; 4889 : 						//// 소스표면의 픽셀 sRGB1이 이미지 픽셀인 경우
; 4890 : 						// else if (sRGB1 == dwColorSpaceLowValue && sRGB2 != dwColorSpaceLowValue )
; 4891 : 						// else if (sRGB2 != dwColorSpaceLowValue)
; 4892 : 						else 

	jmp	SHORT $LN35@PutSpriteL
$LN18@PutSpriteL:

; 4893 : 						{
; 4894 : 							lpDDSDstTemp = (WORD*)(lpDDSDst+ix);
; 4895 : 							*(lpDDSDstTemp+1) = (WORD)sRGB2;

	mov	WORD PTR [eax+2], dx
$LN35@PutSpriteL:

; 4862 : 				{
; 4863 : 					for (ix=0; ix < dwWidth; ix++)

	mov	esi, DWORD PTR _dwColorSpaceLowValueMixed$1$[ebp]
$LN7@PutSpriteL:
	add	eax, 4
	sub	edi, 1
	jne	SHORT $LL9@PutSpriteL
	mov	eax, DWORD PTR _ddsdSrc$[ebp+8]
	mov	edi, DWORD PTR _lpDDSDst$1$[ebp]
	mov	ebx, DWORD PTR _iy$1$[ebp]
	mov	ecx, DWORD PTR _lpDDSSrc$1$[ebp]
	mov	edx, DWORD PTR _dwWidth$1$[ebp]
$LN8@PutSpriteL:

; 4896 : 						}				
; 4897 : 					}					
; 4898 : 					lpDDSSrc += dwSrcPitch;

	add	ecx, DWORD PTR tv425[ebp]
	inc	ebx

; 4899 : 					lpDDSDst += dwDstPitch;

	add	edi, DWORD PTR tv424[ebp]
	mov	DWORD PTR _lpDDSSrc$1$[ebp], ecx
	mov	DWORD PTR _lpDDSDst$1$[ebp], edi
	mov	DWORD PTR _iy$1$[ebp], ebx
	cmp	ebx, eax
	jb	$LL6@PutSpriteL
$LN33@PutSpriteL:

; 4900 : 				}
; 4901 : 			}	
; 4902 : 			else if (g_dwPixelFormat == BGR565)
; 4903 : 			{
; 4904 : 			}
; 4905 : 			else if (g_dwPixelFormat == RGB555)
; 4906 : 			{
; 4907 : 			}
; 4908 : 			break;
; 4909 : 		}
; 4910 : 	case 24 :
; 4911 : 	case 32 : break;
; 4912 : 	}	
; 4913 : 	
; 4914 : 	//// 표면 Unlock
; 4915 :     g_pDDSBack->Unlock(&rcDest);

	mov	ebx, DWORD PTR _lpDDS$GSCopy$1$[ebp]
$LN5@PutSpriteL:
	mov	eax, DWORD PTR ?g_pDDSBack@@3PAUIDirectDrawSurface7@@A ; g_pDDSBack
	lea	edx, DWORD PTR _rcDest$[ebp]
	push	edx
	push	eax
	mov	ecx, DWORD PTR [eax]
	call	DWORD PTR [ecx+128]

; 4916 :     lpDDS->Unlock(NULL);

	mov	eax, DWORD PTR [ebx]
	push	0
	push	ebx
	call	DWORD PTR [eax+128]

; 4917 : }

	mov	ecx, DWORD PTR __$ArrayPad$[ebp]
	pop	edi
	pop	esi
	xor	ecx, ebp
	pop	ebx
	call	@__security_check_cookie@4
	mov	esp, ebp
	pop	ebp
	ret	0
?__PutSpriteLockFast16@@YAXPAUIDirectDrawSurface7@@HH@Z ENDP ; __PutSpriteLockFast16
_TEXT	ENDS
; Function compile flags: /Ogtp
; File c:\users\administrator\desktop\김지훈 - 미러월드\1.src\dxwframe.cpp
;	COMDAT ?__PutSpriteEx@@YAXPAUIDirectDrawSurface7@@HH@Z
_TEXT	SEGMENT
_lpDDS$GSCopy$1$ = -164					; size = 4
_ddsd$ = -160						; size = 124
_rcDst$ = -36						; size = 16
_rcSrc$ = -20						; size = 16
__$ArrayPad$ = -4					; size = 4
_lpDDS$ = 8						; size = 4
_x$ = 12						; size = 4
_y$ = 16						; size = 4
?__PutSpriteEx@@YAXPAUIDirectDrawSurface7@@HH@Z PROC	; __PutSpriteEx, COMDAT

; 4978 : {

	push	ebp
	mov	ebp, esp
	sub	esp, 164				; 000000a4H
	mov	eax, DWORD PTR ___security_cookie
	xor	eax, ebp
	mov	DWORD PTR __$ArrayPad$[ebp], eax
	mov	ecx, DWORD PTR _lpDDS$[ebp]

; 4979 : 	//// 표면의 크기 정보를 얻는다 ( 임시코드 )
; 4980 : 	DDSURFACEDESC2 ddsd;
; 4981 :     ddsd.dwSize = sizeof(ddsd);
; 4982 :     //ddsd.dwFlags = DDSD_HEIGHT | DDSD_WIDTH;
; 4983 : 	lpDDS->GetSurfaceDesc(&ddsd);

	lea	edx, DWORD PTR _ddsd$[ebp]
	push	ebx
	push	esi
	push	edi
	mov	eax, DWORD PTR [ecx]
	push	edx
	push	ecx
	mov	DWORD PTR _lpDDS$GSCopy$1$[ebp], ecx
	mov	DWORD PTR _ddsd$[ebp], 124		; 0000007cH
	call	DWORD PTR [eax+88]

; 4984 : 
; 4985 : 	//// 스크린좌표의 RECT를 구한다
; 4986 : 	RECT rcDst = { x, y, x+ddsd.dwWidth, y+ddsd.dwHeight };

	mov	esi, DWORD PTR _x$[ebp]
	mov	eax, DWORD PTR _y$[ebp]
	mov	edx, DWORD PTR _ddsd$[ebp+12]
	mov	ecx, DWORD PTR _ddsd$[ebp+8]
	mov	DWORD PTR _rcDst$[ebp], esi
	mov	DWORD PTR _rcDst$[ebp+4], eax

; 4987 : 	RECT rcSrc = { 0, 0, ddsd.dwWidth, ddsd.dwHeight };

	mov	DWORD PTR _rcSrc$[ebp], 0
	lea	ebx, DWORD PTR [edx+esi]
	mov	DWORD PTR _rcDst$[ebp+8], ebx
	lea	edi, DWORD PTR [ecx+eax]
	mov	DWORD PTR _rcDst$[ebp+12], edi
	mov	DWORD PTR _rcSrc$[ebp+4], 0
	mov	DWORD PTR _rcSrc$[ebp+8], edx
	mov	DWORD PTR _rcSrc$[ebp+12], ecx

; 4988 : 
; 4989 : 	//// 스크린 밖으로 나가면 출력하지 않는다
; 4990 : 	if (x >= HRES || y >= VRES) return;

	cmp	esi, 1024				; 00000400H
	jge	$LN5@PutSpriteE
	cmp	eax, 768				; 00000300H
	jge	$LN5@PutSpriteE

; 4991 : 	if (rcDst.right <= 0 || rcDst.bottom <= 0) return;

	test	ebx, ebx
	jle	$LN5@PutSpriteE
	test	edi, edi
	jle	$LN5@PutSpriteE

; 4992 : 	
; 4993 : 	//// 스프라이트가 스크린 밖으로 나간 만큼 출력하지 않는다
; 4994 : 	//// 오프 스크린의 사각영역을 감소 시켜 클리핑을 구현한다	
; 4995 : 
; 4996 : 	//// 수평 보정
; 4997 : 	if (x < 0)

	test	esi, esi
	jns	SHORT $LN6@PutSpriteE

; 4998 : 	{
; 4999 : 		// 좌변을 줄인다. rcSrc.left += 넘어간 크기, abs(x)
; 5000 : 		rcSrc.left -= x;

	neg	esi

; 5001 : 		rcDst.left=x=0;

	mov	DWORD PTR _rcDst$[ebp], 0
	mov	DWORD PTR _rcSrc$[ebp], esi
	jmp	SHORT $LN8@PutSpriteE
$LN6@PutSpriteE:

; 5002 : 	}
; 5003 : 	else if (rcDst.right >= HRES)

	cmp	ebx, 1024				; 00000400H
	jl	SHORT $LN8@PutSpriteE

; 5004 : 	{
; 5005 : 		// 우변을 줄인다. rcSrc.right -= 넘어간 크기
; 5006 : 		int nOverSize = (rcDst.right - HRES);		
; 5007 : 		rcSrc.right -= nOverSize;

	sub	edx, ebx

; 5008 : 		rcDst.right -= nOverSize;

	mov	DWORD PTR _rcDst$[ebp+8], 1024		; 00000400H
	add	edx, 1024				; 00000400H
	mov	DWORD PTR _rcSrc$[ebp+8], edx
$LN8@PutSpriteE:

; 5009 : 	}
; 5010 : 	//// 수직 보정
; 5011 : 	if (y < 0)

	test	eax, eax
	jns	SHORT $LN9@PutSpriteE

; 5012 : 	{
; 5013 : 		// 상변을 줄인다. rcSrc.top += 넘어간 크기, abs(y)
; 5014 : 		rcSrc.top -= y;

	neg	eax

; 5015 : 		rcDst.top=y=0;		

	mov	DWORD PTR _rcDst$[ebp+4], 0
	mov	DWORD PTR _rcSrc$[ebp+4], eax
	jmp	SHORT $LN11@PutSpriteE
$LN9@PutSpriteE:

; 5016 : 	}
; 5017 : 	else if (rcDst.bottom >= VRES )

	cmp	edi, 768				; 00000300H
	jl	SHORT $LN11@PutSpriteE

; 5018 : 	{
; 5019 : 		// 하변을 줄인다. rcSrc.bottom -= 넘어간 크기 
; 5020 : 		int nOverSize = (rcDst.bottom - VRES);
; 5021 : 		rcSrc.bottom -= nOverSize;

	sub	ecx, edi

; 5022 : 		rcDst.bottom -= nOverSize;

	mov	DWORD PTR _rcDst$[ebp+12], 768		; 00000300H
	add	ecx, 768				; 00000300H
	mov	DWORD PTR _rcSrc$[ebp+12], ecx
$LN11@PutSpriteE:

; 5023 : 	}
; 5024 : 
; 5025 : 	HRESULT ddrval = g_pDDSBack->Blt(&rcDst, lpDDS, &rcSrc, DDBLT_KEYSRC|DDBLT_WAIT, NULL);

	mov	eax, DWORD PTR ?g_pDDSBack@@3PAUIDirectDrawSurface7@@A ; g_pDDSBack
	lea	edx, DWORD PTR _rcSrc$[ebp]
	push	0
	push	16809984				; 01008000H
	push	edx
	push	DWORD PTR _lpDDS$GSCopy$1$[ebp]
	mov	ecx, DWORD PTR [eax]
	lea	edx, DWORD PTR _rcDst$[ebp]
	push	edx
	push	eax
	call	DWORD PTR [ecx+20]

; 5026 : 	if (ddrval != DD_OK) DDERRCHK(ddrval);

	test	eax, eax
	je	SHORT $LN5@PutSpriteE
	push	5026					; 000013a2H
	push	OFFSET ??_C@_0EE@LHDKHKAN@c?3?2users?2administrator?2desktop?2@
	push	eax
	call	?___DDError@@YAHJPADH@Z			; ___DDError
	add	esp, 12					; 0000000cH
$LN5@PutSpriteE:

; 5027 : }

	mov	ecx, DWORD PTR __$ArrayPad$[ebp]
	pop	edi
	pop	esi
	xor	ecx, ebp
	pop	ebx
	call	@__security_check_cookie@4
	mov	esp, ebp
	pop	ebp
	ret	0
?__PutSpriteEx@@YAXPAUIDirectDrawSurface7@@HH@Z ENDP	; __PutSpriteEx
_TEXT	ENDS
; Function compile flags: /Ogtp
; File c:\users\administrator\desktop\김지훈 - 미러월드\1.src\dxwframe.cpp
;	COMDAT ?__PutImageEx@@YAXPAUIDirectDrawSurface7@@HH@Z
_TEXT	SEGMENT
_lpDDS$GSCopy$1$ = -164					; size = 4
_ddsd$ = -160						; size = 124
_rcDst$ = -36						; size = 16
_rcSrc$ = -20						; size = 16
__$ArrayPad$ = -4					; size = 4
_lpDDS$ = 8						; size = 4
_x$ = 12						; size = 4
_y$ = 16						; size = 4
?__PutImageEx@@YAXPAUIDirectDrawSurface7@@HH@Z PROC	; __PutImageEx, COMDAT

; 4926 : {

	push	ebp
	mov	ebp, esp
	sub	esp, 164				; 000000a4H
	mov	eax, DWORD PTR ___security_cookie
	xor	eax, ebp
	mov	DWORD PTR __$ArrayPad$[ebp], eax
	mov	ecx, DWORD PTR _lpDDS$[ebp]

; 4927 : 	//// 표면의 크기 정보를 얻는다 ( 임시코드 )
; 4928 : 	DDSURFACEDESC2 ddsd;
; 4929 :     ddsd.dwSize = sizeof(ddsd);
; 4930 :     //ddsd.dwFlags = DDSD_HEIGHT | DDSD_WIDTH;
; 4931 : 	lpDDS->GetSurfaceDesc(&ddsd);

	lea	edx, DWORD PTR _ddsd$[ebp]
	push	ebx
	push	esi
	push	edi
	mov	eax, DWORD PTR [ecx]
	push	edx
	push	ecx
	mov	DWORD PTR _lpDDS$GSCopy$1$[ebp], ecx
	mov	DWORD PTR _ddsd$[ebp], 124		; 0000007cH
	call	DWORD PTR [eax+88]

; 4932 : 
; 4933 : 	//// 스크린좌표의 RECT를 구한다
; 4934 : 	RECT rcDst = { x, y, x+ddsd.dwWidth, y+ddsd.dwHeight };

	mov	esi, DWORD PTR _x$[ebp]
	mov	eax, DWORD PTR _y$[ebp]
	mov	edx, DWORD PTR _ddsd$[ebp+12]
	mov	ecx, DWORD PTR _ddsd$[ebp+8]
	mov	DWORD PTR _rcDst$[ebp], esi
	mov	DWORD PTR _rcDst$[ebp+4], eax

; 4935 : 	RECT rcSrc = { 0, 0, ddsd.dwWidth, ddsd.dwHeight };

	mov	DWORD PTR _rcSrc$[ebp], 0
	lea	ebx, DWORD PTR [edx+esi]
	mov	DWORD PTR _rcDst$[ebp+8], ebx
	lea	edi, DWORD PTR [ecx+eax]
	mov	DWORD PTR _rcDst$[ebp+12], edi
	mov	DWORD PTR _rcSrc$[ebp+4], 0
	mov	DWORD PTR _rcSrc$[ebp+8], edx
	mov	DWORD PTR _rcSrc$[ebp+12], ecx

; 4936 : 
; 4937 : 	//// 스크린 밖으로 나가면 출력하지 않는다
; 4938 : 	if (x >= HRES || y >= VRES) return;

	cmp	esi, 1024				; 00000400H
	jge	$LN5@PutImageEx
	cmp	eax, 768				; 00000300H
	jge	$LN5@PutImageEx

; 4939 : 	if (rcDst.right <= 0 || rcDst.bottom <= 0) return;

	test	ebx, ebx
	jle	$LN5@PutImageEx
	test	edi, edi
	jle	$LN5@PutImageEx

; 4940 : 	
; 4941 : 	//// 스프라이트가 스크린 밖으로 나간 만큼 출력하지 않는다
; 4942 : 	//// 오프 스크린의 사각영역을 감소 시켜 클리핑을 구현한다	
; 4943 : 
; 4944 : 	//// 수평 보정
; 4945 : 	if (x < 0)

	test	esi, esi
	jns	SHORT $LN6@PutImageEx

; 4946 : 	{
; 4947 : 		// 좌변을 줄인다. rcSrc.left += 넘어간 크기, abs(x)
; 4948 : 		rcSrc.left -= x;

	neg	esi

; 4949 : 		rcDst.left=x=0;		

	mov	DWORD PTR _rcDst$[ebp], 0
	mov	DWORD PTR _rcSrc$[ebp], esi
	jmp	SHORT $LN8@PutImageEx
$LN6@PutImageEx:

; 4950 : 	}
; 4951 : 	else if (rcDst.right >= HRES)

	cmp	ebx, 1024				; 00000400H
	jl	SHORT $LN8@PutImageEx

; 4952 : 	{
; 4953 : 		// 우변을 줄인다. rcSrc.right -= 넘어간 크기
; 4954 : 		int nOverSize = (rcDst.right - HRES);		
; 4955 : 		rcSrc.right -= nOverSize;

	sub	edx, ebx

; 4956 : 		rcDst.right -= nOverSize;

	mov	DWORD PTR _rcDst$[ebp+8], 1024		; 00000400H
	add	edx, 1024				; 00000400H
	mov	DWORD PTR _rcSrc$[ebp+8], edx
$LN8@PutImageEx:

; 4957 : 	}
; 4958 : 	//// 수직 보정
; 4959 : 	if (y < 0)

	test	eax, eax
	jns	SHORT $LN9@PutImageEx

; 4960 : 	{
; 4961 : 		// 상변을 줄인다. rcSrc.top += 넘어간 크기, abs(y)
; 4962 : 		rcSrc.top -= y;

	neg	eax

; 4963 : 		rcDst.top=y=0;		

	mov	DWORD PTR _rcDst$[ebp+4], 0
	mov	DWORD PTR _rcSrc$[ebp+4], eax
	jmp	SHORT $LN11@PutImageEx
$LN9@PutImageEx:

; 4964 : 	}
; 4965 : 	else if (rcDst.bottom >= VRES )

	cmp	edi, 768				; 00000300H
	jl	SHORT $LN11@PutImageEx

; 4966 : 	{
; 4967 : 		// 하변을 줄인다. rcSrc.bottom -= 넘어간 크기 
; 4968 : 		int nOverSize = (rcDst.bottom - VRES);
; 4969 : 		rcSrc.bottom -= nOverSize;

	sub	ecx, edi

; 4970 : 		rcDst.bottom -= nOverSize;

	mov	DWORD PTR _rcDst$[ebp+12], 768		; 00000300H
	add	ecx, 768				; 00000300H
	mov	DWORD PTR _rcSrc$[ebp+12], ecx
$LN11@PutImageEx:

; 4971 : 	}
; 4972 : 
; 4973 : 	HRESULT ddrval = g_pDDSBack->Blt(&rcDst, lpDDS, &rcSrc, DDBLT_WAIT, NULL);

	mov	eax, DWORD PTR ?g_pDDSBack@@3PAUIDirectDrawSurface7@@A ; g_pDDSBack
	lea	edx, DWORD PTR _rcSrc$[ebp]
	push	0
	push	16777216				; 01000000H
	push	edx
	push	DWORD PTR _lpDDS$GSCopy$1$[ebp]
	mov	ecx, DWORD PTR [eax]
	lea	edx, DWORD PTR _rcDst$[ebp]
	push	edx
	push	eax
	call	DWORD PTR [ecx+20]

; 4974 : 	if (ddrval != DD_OK) DDERRCHK(ddrval);

	test	eax, eax
	je	SHORT $LN5@PutImageEx
	push	4974					; 0000136eH
	push	OFFSET ??_C@_0EE@LHDKHKAN@c?3?2users?2administrator?2desktop?2@
	push	eax
	call	?___DDError@@YAHJPADH@Z			; ___DDError
	add	esp, 12					; 0000000cH
$LN5@PutImageEx:

; 4975 : }

	mov	ecx, DWORD PTR __$ArrayPad$[ebp]
	pop	edi
	pop	esi
	xor	ecx, ebp
	pop	ebx
	call	@__security_check_cookie@4
	mov	esp, ebp
	pop	ebp
	ret	0
?__PutImageEx@@YAXPAUIDirectDrawSurface7@@HH@Z ENDP	; __PutImageEx
_TEXT	ENDS
; Function compile flags: /Ogtp
; File c:\users\administrator\desktop\김지훈 - 미러월드\1.src\dxwframe.cpp
;	COMDAT ?__PutSpriteLock32@@YAXPAUIDirectDrawSurface7@@HH@Z
_TEXT	SEGMENT
_lpDDS$GSCopy$1$ = -152					; size = 4
tv334 = -148						; size = 4
tv335 = -144						; size = 4
_dwSrcColorKey$1$ = -140				; size = 4
_ddsdSrc$1$ = -136					; size = 4
_nWidth$1$ = -132					; size = 4
_ddsdSrc$ = -128					; size = 124
__$ArrayPad$ = -4					; size = 4
_lpDDS$ = 8						; size = 4
_x$ = 12						; size = 4
_y$ = 16						; size = 4
?__PutSpriteLock32@@YAXPAUIDirectDrawSurface7@@HH@Z PROC ; __PutSpriteLock32, COMDAT

; 4757 : {

	push	ebp
	mov	ebp, esp
	sub	esp, 152				; 00000098H
	mov	eax, DWORD PTR ___security_cookie
	xor	eax, ebp
	mov	DWORD PTR __$ArrayPad$[ebp], eax
	push	ebx
	mov	ebx, DWORD PTR _lpDDS$[ebp]

; 4758 : 	HRESULT hRet;
; 4759 : 	DDSURFACEDESC2 ddsdSrc;
; 4760 : 
; 4761 : 	memset(&ddsdSrc, 0, sizeof(ddsdSrc));

	lea	eax, DWORD PTR _ddsdSrc$[ebp+8]
	push	esi
	mov	esi, DWORD PTR _y$[ebp]
	push	edi
	mov	edi, DWORD PTR _x$[ebp]
	push	116					; 00000074H
	push	0
	push	eax
	mov	DWORD PTR _lpDDS$GSCopy$1$[ebp], ebx
	call	_memset

; 4762 : 	ddsdSrc.dwSize = sizeof(ddsdSrc);
; 4763 : 	ddsdSrc.dwFlags = DDSD_CKSRCBLT;
; 4764 : 
; 4765 : 	hRet = lpDDS->Lock(NULL, &ddsdSrc, DDLOCK_READONLY|DDLOCK_WAIT, NULL);

	mov	eax, DWORD PTR [ebx]
	lea	ecx, DWORD PTR _ddsdSrc$[ebp]
	add	esp, 12					; 0000000cH
	mov	DWORD PTR _ddsdSrc$[ebp], 124		; 0000007cH
	mov	DWORD PTR _ddsdSrc$[ebp+4], 65536	; 00010000H
	push	0
	push	17					; 00000011H
	push	ecx
	push	0
	push	ebx
	call	DWORD PTR [eax+100]

; 4766 : 	if (hRet != DD_OK) { DDERRCHK(hRet); return; }

	test	eax, eax
	je	SHORT $LN8@PutSpriteL
	push	4766					; 0000129eH
	jmp	$LN23@PutSpriteL
$LN8@PutSpriteL:

; 4767 : 	
; 4768 : 	//// 이미지 표면 주소
; 4769 : 	DWORD* lpSrc = (DWORD*) ddsdSrc.lpSurface;
; 4770 : 	
; 4771 : 	//// 2차 표면 주소 ( 전역 ) , ( *4 )
; 4772 : 	DWORD* lpDst = (DWORD*) ((LPBYTE)g_ddsd.lpSurface + y*g_ddsd.lPitch+(x << 2));

	mov	ecx, DWORD PTR ?g_ddsd@@3U_DDSURFACEDESC2@@A+16

; 4773 : 
; 4774 : 	int nWidth  = ddsdSrc.dwWidth;
; 4775 : 	int nHeight = ddsdSrc.dwHeight;
; 4776 : 	
; 4777 : 	//// 컬러키
; 4778 : 	DWORD dwSrcColorKey = ddsdSrc.ddckCKSrcBlt.dwColorSpaceLowValue;

	mov	eax, DWORD PTR _ddsdSrc$[ebp+64]

; 4779 : 	DWORD dwSrc=0;
; 4780 : 
; 4781 : 	//// DWORD 단위로 주소가 증가 되므로 RShift ( /4)
; 4782 : 	DWORD dwSrcPitch = ddsdSrc.lPitch >> 2;
; 4783 : 	DWORD dwDstPitch = g_ddsd.lPitch >> 2;
; 4784 : 
; 4785 : 	//// 루프내에서는 최대한 연산을 최소화한다	
; 4786 : 	for (int iy=0; iy < nHeight; iy++)

	mov	edx, DWORD PTR _ddsdSrc$[ebp+8]
	mov	ebx, DWORD PTR _ddsdSrc$[ebp+36]
	imul	esi, ecx
	mov	DWORD PTR _dwSrcColorKey$1$[ebp], eax
	mov	eax, DWORD PTR _ddsdSrc$[ebp+16]
	mov	DWORD PTR _ddsdSrc$1$[ebp], edx
	add	esi, DWORD PTR ?g_ddsd@@3U_DDSURFACEDESC2@@A+36
	lea	edi, DWORD PTR [esi+edi*4]
	mov	esi, DWORD PTR _ddsdSrc$[ebp+12]
	mov	DWORD PTR _nWidth$1$[ebp], esi
	test	edx, edx
	jle	SHORT $LN3@PutSpriteL
	and	eax, -4					; fffffffcH
	and	ecx, -4					; fffffffcH
	mov	DWORD PTR tv335[ebp], eax
	mov	DWORD PTR tv334[ebp], ecx
	npad	6
$LL4@PutSpriteL:

; 4787 : 	{
; 4788 : 		for (int ix=0; ix < nWidth; ix++)

	test	esi, esi
	jle	SHORT $LN6@PutSpriteL
	mov	edx, DWORD PTR _nWidth$1$[ebp]
	mov	esi, ebx
	mov	ecx, edi
	sub	esi, edi
$LL16@PutSpriteL:

; 4789 : 		{
; 4790 : 			//// 알파 값 또는 최상위 8비트는 무시한다, ARGB
; 4791 : 			dwSrc = *(lpSrc+ix) & 0x00FFFFFF;

	mov	eax, DWORD PTR [esi+ecx]
	and	eax, 16777215				; 00ffffffH

; 4792 : 			if (dwSrc != dwSrcColorKey)

	cmp	eax, DWORD PTR _dwSrcColorKey$1$[ebp]
	je	SHORT $LN17@PutSpriteL

; 4793 : 			{
; 4794 : 				*(lpDst+ix) = dwSrc;

	mov	DWORD PTR [ecx], eax
$LN17@PutSpriteL:

; 4787 : 	{
; 4788 : 		for (int ix=0; ix < nWidth; ix++)

	add	ecx, 4
	sub	edx, 1
	jne	SHORT $LL16@PutSpriteL
	mov	edx, DWORD PTR _ddsdSrc$1$[ebp]
	mov	esi, DWORD PTR _nWidth$1$[ebp]
	mov	eax, DWORD PTR tv335[ebp]
	mov	ecx, DWORD PTR tv334[ebp]
$LN6@PutSpriteL:

; 4795 : 			}
; 4796 : 		}
; 4797 : 		lpSrc += dwSrcPitch;

	add	ebx, eax

; 4798 : 		lpDst += dwDstPitch;

	add	edi, ecx
	sub	edx, 1
	mov	DWORD PTR _ddsdSrc$1$[ebp], edx
	jne	SHORT $LL4@PutSpriteL
$LN3@PutSpriteL:

; 4799 : 	}
; 4800 : 
; 4801 : 	hRet = lpDDS->Unlock(NULL);

	mov	ecx, DWORD PTR _lpDDS$GSCopy$1$[ebp]
	push	0
	push	ecx
	mov	eax, DWORD PTR [ecx]
	call	DWORD PTR [eax+128]

; 4802 : 	if (hRet != DD_OK) { DDERRCHK(hRet); return; }

	test	eax, eax
	je	SHORT $LN10@PutSpriteL
	push	4802					; 000012c2H
$LN23@PutSpriteL:

; 4803 : }

	push	OFFSET ??_C@_0EE@LHDKHKAN@c?3?2users?2administrator?2desktop?2@
	push	eax
	call	?___DDError@@YAHJPADH@Z			; ___DDError
	add	esp, 12					; 0000000cH
$LN10@PutSpriteL:
	mov	ecx, DWORD PTR __$ArrayPad$[ebp]
	pop	edi
	pop	esi
	xor	ecx, ebp
	pop	ebx
	call	@__security_check_cookie@4
	mov	esp, ebp
	pop	ebp
	ret	0
?__PutSpriteLock32@@YAXPAUIDirectDrawSurface7@@HH@Z ENDP ; __PutSpriteLock32
_TEXT	ENDS
; Function compile flags: /Ogtp
; File c:\users\administrator\desktop\김지훈 - 미러월드\1.src\dxwframe.cpp
;	COMDAT ?__PutSpriteLock16@@YAXPAUIDirectDrawSurface7@@HH@Z
_TEXT	SEGMENT
_lpDDS$GSCopy$1$ = -156					; size = 4
tv286 = -152						; size = 4
tv287 = -148						; size = 4
_dwSrcColorKey$1$ = -144				; size = 4
_ddsdSrc$1$ = -140					; size = 4
_lpSrc$1$ = -136					; size = 4
_nWidth$1$ = -132					; size = 4
_ddsdSrc$ = -128					; size = 124
__$ArrayPad$ = -4					; size = 4
_lpDDS$ = 8						; size = 4
_x$ = 12						; size = 4
_y$ = 16						; size = 4
?__PutSpriteLock16@@YAXPAUIDirectDrawSurface7@@HH@Z PROC ; __PutSpriteLock16, COMDAT

; 4704 : {

	push	ebp
	mov	ebp, esp
	sub	esp, 156				; 0000009cH
	mov	eax, DWORD PTR ___security_cookie
	xor	eax, ebp
	mov	DWORD PTR __$ArrayPad$[ebp], eax
	push	ebx
	mov	ebx, DWORD PTR _lpDDS$[ebp]

; 4705 : 	HRESULT hRet;
; 4706 : 	DDSURFACEDESC2 ddsdSrc;
; 4707 : 
; 4708 : 	memset(&ddsdSrc, 0, sizeof(ddsdSrc));

	lea	eax, DWORD PTR _ddsdSrc$[ebp+4]
	push	esi
	mov	esi, DWORD PTR _x$[ebp]
	push	edi
	mov	edi, DWORD PTR _y$[ebp]
	push	120					; 00000078H
	push	0
	push	eax
	mov	DWORD PTR _lpDDS$GSCopy$1$[ebp], ebx
	call	_memset

; 4709 : 	ddsdSrc.dwSize = sizeof(ddsdSrc);    
; 4710 : 
; 4711 : 	hRet = lpDDS->Lock(NULL, &ddsdSrc, DDLOCK_READONLY|DDLOCK_WAIT, NULL);

	mov	eax, DWORD PTR [ebx]
	lea	ecx, DWORD PTR _ddsdSrc$[ebp]
	add	esp, 12					; 0000000cH
	mov	DWORD PTR _ddsdSrc$[ebp], 124		; 0000007cH
	push	0
	push	17					; 00000011H
	push	ecx
	push	0
	push	ebx
	call	DWORD PTR [eax+100]

; 4712 : 	if (hRet != DD_OK) { DDERRCHK(hRet); return; }

	test	eax, eax
	je	SHORT $LN8@PutSpriteL
	push	4712					; 00001268H
	jmp	$LN23@PutSpriteL
$LN8@PutSpriteL:

; 4713 : 	
; 4714 : 	//// 이미지 표면 주소
; 4715 : 	WORD* lpSrc = (WORD*) ddsdSrc.lpSurface;
; 4716 : 	
; 4717 : 	//// 2차 표면 주소 ( 전역 ) , ( *2 )
; 4718 : 	WORD* lpDst = (WORD*) ((LPBYTE)g_ddsd.lpSurface + y*g_ddsd.lPitch+(x << 1));

	mov	edx, DWORD PTR ?g_ddsd@@3U_DDSURFACEDESC2@@A+16
	mov	eax, edx
	mov	ecx, DWORD PTR _ddsdSrc$[ebp+36]
	imul	eax, edi

; 4719 : 
; 4720 : 	int nWidth  = ddsdSrc.dwWidth;

	mov	edi, DWORD PTR _ddsdSrc$[ebp+12]

; 4721 : 	int nHeight = ddsdSrc.dwHeight;
; 4722 : 	
; 4723 : 	//// 컬러키
; 4724 : 	DWORD dwSrcColorKey = ddsdSrc.ddckCKSrcBlt.dwColorSpaceLowValue;
; 4725 : 	WORD wSrc=0;
; 4726 : 
; 4727 : 	//// WORD 단위로 주소가 증가 되므로 RShift ( /2)
; 4728 : 	DWORD dwSrcPitch = ddsdSrc.lPitch >> 1;
; 4729 : 	DWORD dwDstPitch = g_ddsd.lPitch >> 1;

	sar	edx, 1
	mov	DWORD PTR _lpSrc$1$[ebp], ecx
	mov	DWORD PTR _nWidth$1$[ebp], edi
	add	eax, DWORD PTR ?g_ddsd@@3U_DDSURFACEDESC2@@A+36
	lea	ebx, DWORD PTR [eax+esi*2]
	mov	eax, DWORD PTR _ddsdSrc$[ebp+64]

; 4730 : 
; 4731 : 	//// 루프내에서는 최대한 연산을 최소화한다	
; 4732 : 	for (int iy=0; iy < nHeight; iy++)

	mov	esi, DWORD PTR _ddsdSrc$[ebp+8]
	mov	DWORD PTR _dwSrcColorKey$1$[ebp], eax
	mov	eax, DWORD PTR _ddsdSrc$[ebp+16]
	sar	eax, 1
	mov	DWORD PTR _ddsdSrc$1$[ebp], esi
	test	esi, esi
	jle	SHORT $LN3@PutSpriteL
	add	eax, eax
	add	edx, edx
	mov	DWORD PTR tv287[ebp], eax
	mov	DWORD PTR tv286[ebp], edx
	npad	3
$LL4@PutSpriteL:

; 4733 : 	{
; 4734 : 		for (int ix=0; ix < nWidth; ix++)

	test	edi, edi
	jle	SHORT $LN6@PutSpriteL
	mov	esi, DWORD PTR _nWidth$1$[ebp]
	mov	edi, ecx
	mov	eax, ebx
	sub	edi, ebx
$LL16@PutSpriteL:

; 4735 : 		{			
; 4736 : 			wSrc = *(lpSrc+ix);

	movzx	edx, WORD PTR [edi+eax]

; 4737 : 			if (wSrc != dwSrcColorKey)

	cmp	edx, DWORD PTR _dwSrcColorKey$1$[ebp]
	je	SHORT $LN17@PutSpriteL

; 4738 : 			{
; 4739 : 				*(lpDst+ix) = wSrc;

	mov	WORD PTR [eax], dx
$LN17@PutSpriteL:

; 4733 : 	{
; 4734 : 		for (int ix=0; ix < nWidth; ix++)

	add	eax, 2
	sub	esi, 1
	jne	SHORT $LL16@PutSpriteL
	mov	ecx, DWORD PTR _lpSrc$1$[ebp]
	mov	esi, DWORD PTR _ddsdSrc$1$[ebp]
	mov	edi, DWORD PTR _nWidth$1$[ebp]
	mov	eax, DWORD PTR tv287[ebp]
	mov	edx, DWORD PTR tv286[ebp]
$LN6@PutSpriteL:

; 4740 : 			}
; 4741 : 		}
; 4742 : 		lpSrc += dwSrcPitch;

	add	ecx, eax

; 4743 : 		lpDst += dwDstPitch;

	add	ebx, edx
	sub	esi, 1
	mov	DWORD PTR _lpSrc$1$[ebp], ecx
	mov	DWORD PTR _ddsdSrc$1$[ebp], esi
	jne	SHORT $LL4@PutSpriteL
$LN3@PutSpriteL:

; 4744 : 	}
; 4745 : 
; 4746 : 	hRet = lpDDS->Unlock(NULL);

	mov	ecx, DWORD PTR _lpDDS$GSCopy$1$[ebp]
	push	0
	push	ecx
	mov	eax, DWORD PTR [ecx]
	call	DWORD PTR [eax+128]

; 4747 : 	if (hRet != DD_OK) { DDERRCHK(hRet); return; }

	test	eax, eax
	je	SHORT $LN10@PutSpriteL
	push	4747					; 0000128bH
$LN23@PutSpriteL:

; 4748 : }

	push	OFFSET ??_C@_0EE@LHDKHKAN@c?3?2users?2administrator?2desktop?2@
	push	eax
	call	?___DDError@@YAHJPADH@Z			; ___DDError
	add	esp, 12					; 0000000cH
$LN10@PutSpriteL:
	mov	ecx, DWORD PTR __$ArrayPad$[ebp]
	pop	edi
	pop	esi
	xor	ecx, ebp
	pop	ebx
	call	@__security_check_cookie@4
	mov	esp, ebp
	pop	ebp
	ret	0
?__PutSpriteLock16@@YAXPAUIDirectDrawSurface7@@HH@Z ENDP ; __PutSpriteLock16
_TEXT	ENDS
; Function compile flags: /Ogtp
; File c:\users\administrator\desktop\김지훈 - 미러월드\1.src\dxwframe.cpp
;	COMDAT ?__PutImageLock@@YAXPAUIDirectDrawSurface7@@HH@Z
_TEXT	SEGMENT
_lpDDS$GSCopy$1$ = -136					; size = 4
_y$GSCopy$1$ = -132					; size = 4
_nWidth$1$ = -132					; size = 4
_ddsdSrc$ = -128					; size = 124
__$ArrayPad$ = -4					; size = 4
_lpDDS$ = 8						; size = 4
_x$ = 12						; size = 4
_y$ = 16						; size = 4
?__PutImageLock@@YAXPAUIDirectDrawSurface7@@HH@Z PROC	; __PutImageLock, COMDAT

; 4658 : {

	push	ebp
	mov	ebp, esp
	sub	esp, 136				; 00000088H
	mov	eax, DWORD PTR ___security_cookie
	xor	eax, ebp
	mov	DWORD PTR __$ArrayPad$[ebp], eax
	mov	eax, DWORD PTR _y$[ebp]
	push	ebx
	mov	ebx, DWORD PTR _lpDDS$[ebp]
	push	esi
	mov	esi, DWORD PTR _x$[ebp]

; 4659 : 	HRESULT hRet;
; 4660 : 	DDSURFACEDESC2 ddsdSrc;
; 4661 : 
; 4662 : 	memset(&ddsdSrc, 0, sizeof(ddsdSrc));

	push	120					; 00000078H
	mov	DWORD PTR _y$GSCopy$1$[ebp], eax
	lea	eax, DWORD PTR _ddsdSrc$[ebp+4]
	push	0
	push	eax
	mov	DWORD PTR _lpDDS$GSCopy$1$[ebp], ebx
	call	_memset

; 4663 : 	ddsdSrc.dwSize = sizeof(ddsdSrc);    
; 4664 : 
; 4665 : 	hRet = lpDDS->Lock(NULL, &ddsdSrc, DDLOCK_READONLY|DDLOCK_WAIT, NULL);

	mov	eax, DWORD PTR [ebx]
	lea	ecx, DWORD PTR _ddsdSrc$[ebp]
	add	esp, 12					; 0000000cH
	mov	DWORD PTR _ddsdSrc$[ebp], 124		; 0000007cH
	push	0
	push	17					; 00000011H
	push	ecx
	push	0
	push	ebx
	call	DWORD PTR [eax+100]

; 4666 : 	if (hRet != DD_OK) { DDERRCHK(hRet); return; }

	test	eax, eax
	je	SHORT $LN7@PutImageLo
	push	4666					; 0000123aH
	jmp	$LN16@PutImageLo
$LN7@PutImageLo:

; 4667 : 
; 4668 : 	///// BPP에 따라 연산 값을 취한다
; 4669 : 	DWORD dwMul = 1;
; 4670 : 	switch(g_dwRGBBitCount)

	mov	eax, DWORD PTR ?g_dwRGBBitCount@@3KA	; g_dwRGBBitCount
	mov	ecx, 1
	cmp	eax, 16					; 00000010H
	je	SHORT $LN8@PutImageLo
	cmp	eax, 32					; 00000020H
	jne	SHORT $LN2@PutImageLo

; 4673 : 	case 32 : dwMul = 4; break;

	lea	ecx, DWORD PTR [eax-28]
	jmp	SHORT $LN2@PutImageLo
$LN8@PutImageLo:

; 4671 : 	{
; 4672 : 	case 16 : dwMul = 2; break;

	mov	ecx, 2
$LN2@PutImageLo:

; 4674 : 	}
; 4675 : 
; 4676 : 	//// 이미지 표면 주소
; 4677 : 	LPBYTE lpSrc = (LPBYTE) ddsdSrc.lpSurface;
; 4678 : 	
; 4679 : 	//// 2차 표면 주소 ( 전역 )	
; 4680 : 	LPBYTE lpDst = (LPBYTE) g_ddsd.lpSurface + y*g_ddsd.lPitch+(x * dwMul);

	mov	eax, DWORD PTR ?g_ddsd@@3U_DDSURFACEDESC2@@A+16
	imul	eax, DWORD PTR _y$GSCopy$1$[ebp]

; 4681 : 
; 4682 : 	int nWidth  = ddsdSrc.dwWidth * dwMul;
; 4683 : 	int nHeight = ddsdSrc.dwHeight;
; 4684 : 
; 4685 : 	//// memcpy에 의한 메모리 전송
; 4686 : 	for (int iy=0; iy < nHeight; iy++)

	mov	ebx, DWORD PTR _ddsdSrc$[ebp+8]
	imul	esi, ecx
	push	edi
	mov	edi, DWORD PTR _ddsdSrc$[ebp+36]
	add	eax, DWORD PTR ?g_ddsd@@3U_DDSURFACEDESC2@@A+36
	add	esi, eax
	mov	eax, DWORD PTR _ddsdSrc$[ebp+12]
	imul	eax, ecx
	mov	DWORD PTR _nWidth$1$[ebp], eax
	test	ebx, ebx
	jle	SHORT $LN5@PutImageLo
	npad	5
$LL6@PutImageLo:

; 4687 : 	{
; 4688 : 		memcpy(lpDst, lpSrc, nWidth);

	push	eax
	push	edi
	push	esi
	call	_memcpy

; 4689 : 		lpSrc += ddsdSrc.lPitch;

	add	edi, DWORD PTR _ddsdSrc$[ebp+16]
	add	esp, 12					; 0000000cH

; 4690 : 		lpDst += g_ddsd.lPitch;

	add	esi, DWORD PTR ?g_ddsd@@3U_DDSURFACEDESC2@@A+16
	mov	eax, DWORD PTR _nWidth$1$[ebp]
	sub	ebx, 1
	jne	SHORT $LL6@PutImageLo
$LN5@PutImageLo:

; 4691 : 	}
; 4692 : 
; 4693 : 	hRet = lpDDS->Unlock(NULL);

	mov	ecx, DWORD PTR _lpDDS$GSCopy$1$[ebp]
	push	0
	push	ecx
	mov	eax, DWORD PTR [ecx]
	call	DWORD PTR [eax+128]
	pop	edi

; 4694 : 	if (hRet != DD_OK) { DDERRCHK(hRet); return; }

	test	eax, eax
	je	SHORT $LN10@PutImageLo
	push	4694					; 00001256H
$LN16@PutImageLo:

; 4695 : }

	push	OFFSET ??_C@_0EE@LHDKHKAN@c?3?2users?2administrator?2desktop?2@
	push	eax
	call	?___DDError@@YAHJPADH@Z			; ___DDError
	add	esp, 12					; 0000000cH
$LN10@PutImageLo:
	mov	ecx, DWORD PTR __$ArrayPad$[ebp]
	pop	esi
	xor	ecx, ebp
	pop	ebx
	call	@__security_check_cookie@4
	mov	esp, ebp
	pop	ebp
	ret	0
?__PutImageLock@@YAXPAUIDirectDrawSurface7@@HH@Z ENDP	; __PutImageLock
_TEXT	ENDS
; Function compile flags: /Ogtp
; File c:\users\administrator\desktop\김지훈 - 미러월드\1.src\dxwframe.cpp
;	COMDAT ?__PutAnimeSprite@@YAXPAUIDirectDrawSurface7@@HHHHHHH@Z
_TEXT	SEGMENT
_ddbltfx$ = -264					; size = 100
_ddrval$ = -164						; size = 4
_ddsd$ = -160						; size = 124
_rcDest$ = -36						; size = 16
_CHAR$ = -20						; size = 16
__$ArrayPad$ = -4					; size = 4
_lpDDS$ = 8						; size = 4
_x$ = 12						; size = 4
_y$ = 16						; size = 4
_Count$ = 20						; size = 4
_Number$ = 24						; size = 4
_cutx$ = 28						; size = 4
_cuty$ = 32						; size = 4
_Flip$ = 36						; size = 4
?__PutAnimeSprite@@YAXPAUIDirectDrawSurface7@@HHHHHHH@Z PROC ; __PutAnimeSprite, COMDAT

; 4606 : {

	push	ebp
	mov	ebp, esp
	sub	esp, 264				; 00000108H
	mov	eax, DWORD PTR ___security_cookie
	xor	eax, ebp
	mov	DWORD PTR __$ArrayPad$[ebp], eax
	push	esi
	push	edi
	mov	edi, DWORD PTR _lpDDS$[ebp]

; 4607 : 	//// 표면의 크기 정보를 얻는다 ( 임시코드 )
; 4608 : 	DDSURFACEDESC2 ddsd;
; 4609 : 	DDBLTFX  ddbltfx;
; 4610 : 	HRESULT ddrval;
; 4611 : 	ddsd.dwSize = sizeof(ddsd);
; 4612 : 	ddsd.dwFlags = DDSD_HEIGHT | DDSD_WIDTH;
; 4613 : 	lpDDS->GetSurfaceDesc(&ddsd);

	lea	ecx, DWORD PTR _ddsd$[ebp]
	push	ecx
	push	edi
	mov	DWORD PTR _ddsd$[ebp], 124		; 0000007cH
	mov	eax, DWORD PTR [edi]
	mov	DWORD PTR _ddsd$[ebp+4], 6
	call	DWORD PTR [eax+88]

; 4614 : 
; 4615 : 	ZeroMemory(&ddbltfx, sizeof(ddbltfx));

	push	92					; 0000005cH
	lea	eax, DWORD PTR _ddbltfx$[ebp+8]
	push	0
	push	eax
	call	_memset

; 4616 : 	ddbltfx.dwSize = sizeof(ddbltfx);
; 4617 : 	ddbltfx.dwDDFX = DDBLTFX_MIRRORLEFTRIGHT;
; 4618 : 
; 4619 : 	RECT CHAR = { 0 + (cutx * Number), 0, cutx * (Number + 1), cuty };

	mov	edx, DWORD PTR _Number$[ebp]
	add	esp, 12					; 0000000cH
	mov	eax, edx

; 4620 : 	RECT rcDest = { x, y, x + (ddsd.dwWidth / Count), y + ddsd.dwHeight };

	mov	ecx, DWORD PTR _x$[ebp]
	imul	eax, DWORD PTR _cutx$[ebp]
	mov	esi, DWORD PTR _y$[ebp]
	mov	DWORD PTR _ddbltfx$[ebp], 100		; 00000064H
	mov	DWORD PTR _ddbltfx$[ebp+4], 2
	mov	DWORD PTR _CHAR$[ebp+4], 0
	mov	DWORD PTR _CHAR$[ebp], eax
	lea	eax, DWORD PTR [edx+1]
	imul	eax, DWORD PTR _cutx$[ebp]
	xor	edx, edx
	mov	DWORD PTR _rcDest$[ebp], ecx
	mov	DWORD PTR _rcDest$[ebp+4], esi
	mov	DWORD PTR _CHAR$[ebp+8], eax
	mov	eax, DWORD PTR _cuty$[ebp]
	mov	DWORD PTR _CHAR$[ebp+12], eax
	mov	eax, DWORD PTR _ddsd$[ebp+12]
	div	DWORD PTR _Count$[ebp]
	add	eax, ecx
	mov	DWORD PTR _rcDest$[ebp+8], eax
	mov	eax, DWORD PTR _ddsd$[ebp+8]
	add	eax, esi
	mov	DWORD PTR _rcDest$[ebp+12], eax

; 4621 : 	//좌우반전
; 4622 : 	if (Flip == 1)

	mov	eax, DWORD PTR _Flip$[ebp]
	cmp	eax, 1
	jne	SHORT $LN2@PutAnimeSp

; 4623 : 	{
; 4624 : 		/////
; 4625 : 		ddrval = g_pDDSBack->Blt(&rcDest, lpDDS, &CHAR, DDBLT_KEYSRC | DDBLT_WAIT | DDBLT_DDFX, &ddbltfx);

	mov	eax, DWORD PTR ?g_pDDSBack@@3PAUIDirectDrawSurface7@@A ; g_pDDSBack
	lea	edx, DWORD PTR _ddbltfx$[ebp]
	push	edx
	push	16812032				; 01008800H
	lea	edx, DWORD PTR _CHAR$[ebp]
	mov	ecx, DWORD PTR [eax]
	push	edx
	push	edi
	lea	edx, DWORD PTR _rcDest$[ebp]
	push	edx
	push	eax
	call	DWORD PTR [ecx+20]
	jmp	SHORT $LN4@PutAnimeSp
$LN2@PutAnimeSp:

; 4626 : 	}
; 4627 : 	else if (Flip == 0)

	test	eax, eax
	jne	SHORT $LN7@PutAnimeSp

; 4628 : 	{
; 4629 : 		ddrval = g_pDDSBack->Blt(&rcDest, lpDDS, &CHAR, DDBLT_KEYSRC | DDBLT_WAIT, NULL);

	mov	eax, DWORD PTR ?g_pDDSBack@@3PAUIDirectDrawSurface7@@A ; g_pDDSBack
	lea	edx, DWORD PTR _CHAR$[ebp]
	push	0
	push	16809984				; 01008000H
	push	edx
	mov	ecx, DWORD PTR [eax]
	lea	edx, DWORD PTR _rcDest$[ebp]
	push	edi
	push	edx
	push	eax
	call	DWORD PTR [ecx+20]
	jmp	SHORT $LN4@PutAnimeSp
$LN7@PutAnimeSp:

; 4626 : 	}
; 4627 : 	else if (Flip == 0)

	mov	eax, DWORD PTR _ddrval$[ebp]
$LN4@PutAnimeSp:
	pop	edi

; 4630 : 	}
; 4631 : 	if (ddrval != DD_OK) DDERRCHK(ddrval);

	pop	esi
	test	eax, eax
	je	SHORT $LN5@PutAnimeSp
	push	4631					; 00001217H
	push	OFFSET ??_C@_0EE@LHDKHKAN@c?3?2users?2administrator?2desktop?2@
	push	eax
	call	?___DDError@@YAHJPADH@Z			; ___DDError
	add	esp, 12					; 0000000cH
$LN5@PutAnimeSp:

; 4632 : }

	mov	ecx, DWORD PTR __$ArrayPad$[ebp]
	xor	ecx, ebp
	call	@__security_check_cookie@4
	mov	esp, ebp
	pop	ebp
	ret	0
?__PutAnimeSprite@@YAXPAUIDirectDrawSurface7@@HHHHHHH@Z ENDP ; __PutAnimeSprite
_TEXT	ENDS
; Function compile flags: /Ogtp
; File c:\users\administrator\desktop\김지훈 - 미러월드\1.src\dxwframe.cpp
;	COMDAT ?__Putbar@@YAXPAUIDirectDrawSurface7@@HHHHM@Z
_TEXT	SEGMENT
_ddsd$ = -144						; size = 124
_rcDest$ = -20						; size = 16
__$ArrayPad$ = -4					; size = 4
_lpDDS$ = 8						; size = 4
_x$ = 12						; size = 4
_y$ = 16						; size = 4
_Mhp$ = 20						; size = 4
_hp$ = 24						; size = 4
_HPrate$ = 28						; size = 4
?__Putbar@@YAXPAUIDirectDrawSurface7@@HHHHM@Z PROC	; __Putbar, COMDAT

; 4635 : {

	push	ebp
	mov	ebp, esp
	sub	esp, 144				; 00000090H
	mov	eax, DWORD PTR ___security_cookie
	xor	eax, ebp
	mov	DWORD PTR __$ArrayPad$[ebp], eax
	push	esi
	mov	esi, DWORD PTR _lpDDS$[ebp]

; 4636 : 	DDSURFACEDESC2 ddsd;
; 4637 : 	ddsd.dwSize = sizeof(ddsd);
; 4638 : 	ddsd.dwFlags = DDSD_HEIGHT | DDSD_WIDTH;
; 4639 : 	HPrate = ((float)hp / (float)Mhp);
; 4640 : 	if (HPrate <= 0)
; 4641 : 	{
; 4642 : 		HPrate = 0;
; 4643 : 	}
; 4644 : 	lpDDS->GetSurfaceDesc(&ddsd);

	lea	ecx, DWORD PTR _ddsd$[ebp]
	push	ecx
	push	esi
	mov	DWORD PTR _ddsd$[ebp], 124		; 0000007cH
	mov	eax, DWORD PTR [esi]
	mov	DWORD PTR _ddsd$[ebp+4], 6
	call	DWORD PTR [eax+88]
	movd	xmm1, DWORD PTR _hp$[ebp]
	xorps	xmm2, xmm2
	movd	xmm0, DWORD PTR _Mhp$[ebp]

; 4645 : 
; 4646 : 	/////
; 4647 : 	RECT rcDest = { x, y, (float)x + ((float)ddsd.dwWidth * HPrate), y + ddsd.dwHeight };

	mov	eax, DWORD PTR _ddsd$[ebp+12]
	cvtdq2ps xmm0, xmm0
	mov	ecx, DWORD PTR _x$[ebp]
	mov	edx, DWORD PTR _y$[ebp]

; 4648 : 	HRESULT ddrval = g_pDDSBack->Blt(&rcDest, lpDDS, NULL, DDBLT_KEYSRC | DDBLT_WAIT, NULL);

	push	0
	push	16809984				; 01008000H
	cvtdq2ps xmm1, xmm1
	push	0
	mov	DWORD PTR _rcDest$[ebp+4], edx
	push	esi
	mov	DWORD PTR _rcDest$[ebp], ecx
	divss	xmm1, xmm0
	movd	xmm0, eax
	cvtdq2pd xmm0, xmm0
	shr	eax, 31					; 0000001fH
	maxss	xmm2, xmm1
	addsd	xmm0, QWORD PTR __xmm@41f00000000000000000000000000000[eax*8]
	cvtpd2ps xmm0, xmm0
	mulss	xmm2, xmm0
	movd	xmm0, ecx
	cvtdq2ps xmm0, xmm0
	addss	xmm2, xmm0
	cvttss2si eax, xmm2
	mov	DWORD PTR _rcDest$[ebp+8], eax
	mov	eax, DWORD PTR _ddsd$[ebp+8]
	add	eax, edx
	lea	edx, DWORD PTR _rcDest$[ebp]
	mov	DWORD PTR _rcDest$[ebp+12], eax
	mov	eax, DWORD PTR ?g_pDDSBack@@3PAUIDirectDrawSurface7@@A ; g_pDDSBack
	push	edx
	push	eax
	mov	ecx, DWORD PTR [eax]
	call	DWORD PTR [ecx+20]
	pop	esi

; 4649 : 	if (ddrval != DD_OK) DDERRCHK(ddrval);

	test	eax, eax
	je	SHORT $LN3@Putbar
	push	4649					; 00001229H
	push	OFFSET ??_C@_0EE@LHDKHKAN@c?3?2users?2administrator?2desktop?2@
	push	eax
	call	?___DDError@@YAHJPADH@Z			; ___DDError
	add	esp, 12					; 0000000cH
$LN3@Putbar:

; 4650 : }

	mov	ecx, DWORD PTR __$ArrayPad$[ebp]
	xor	ecx, ebp
	call	@__security_check_cookie@4
	mov	esp, ebp
	pop	ebp
	ret	0
?__Putbar@@YAXPAUIDirectDrawSurface7@@HHHHM@Z ENDP	; __Putbar
_TEXT	ENDS
; Function compile flags: /Ogtp
; File c:\users\administrator\desktop\김지훈 - 미러월드\1.src\dxwframe.cpp
;	COMDAT ?__PutSprite@@YAXPAUIDirectDrawSurface7@@HH@Z
_TEXT	SEGMENT
_ddsd$ = -144						; size = 124
_rcDest$ = -20						; size = 16
__$ArrayPad$ = -4					; size = 4
_lpDDS$ = 8						; size = 4
_x$ = 12						; size = 4
_y$ = 16						; size = 4
?__PutSprite@@YAXPAUIDirectDrawSurface7@@HH@Z PROC	; __PutSprite, COMDAT

; 4591 : {	

	push	ebp
	mov	ebp, esp
	sub	esp, 144				; 00000090H
	mov	eax, DWORD PTR ___security_cookie
	xor	eax, ebp
	mov	DWORD PTR __$ArrayPad$[ebp], eax
	push	esi
	mov	esi, DWORD PTR _lpDDS$[ebp]

; 4592 : 	//// 표면의 크기 정보를 얻는다 ( 임시코드 )
; 4593 : 	DDSURFACEDESC2 ddsd;
; 4594 :     ddsd.dwSize = sizeof(ddsd);
; 4595 :     ddsd.dwFlags = DDSD_HEIGHT | DDSD_WIDTH;
; 4596 : 	lpDDS->GetSurfaceDesc(&ddsd);

	lea	ecx, DWORD PTR _ddsd$[ebp]
	push	ecx
	push	esi
	mov	DWORD PTR _ddsd$[ebp], 124		; 0000007cH
	mov	eax, DWORD PTR [esi]
	mov	DWORD PTR _ddsd$[ebp+4], 6
	call	DWORD PTR [eax+88]

; 4597 : 
; 4598 : 	/////
; 4599 : 	RECT rcDest = { x, y, x+ddsd.dwWidth, y+ddsd.dwHeight };	

	mov	ecx, DWORD PTR _x$[ebp]
	mov	eax, DWORD PTR _ddsd$[ebp+12]
	mov	edx, DWORD PTR _y$[ebp]
	add	eax, ecx
	mov	DWORD PTR _rcDest$[ebp+8], eax
	mov	eax, DWORD PTR _ddsd$[ebp+8]

; 4600 : 	HRESULT ddrval = g_pDDSBack->Blt(&rcDest, lpDDS, NULL, DDBLT_KEYSRC|DDBLT_WAIT, NULL);

	push	0
	add	eax, edx
	mov	DWORD PTR _rcDest$[ebp+4], edx
	push	16809984				; 01008000H
	mov	DWORD PTR _rcDest$[ebp+12], eax
	lea	edx, DWORD PTR _rcDest$[ebp]
	mov	eax, DWORD PTR ?g_pDDSBack@@3PAUIDirectDrawSurface7@@A ; g_pDDSBack
	push	0
	push	esi
	mov	DWORD PTR _rcDest$[ebp], ecx
	mov	ecx, DWORD PTR [eax]
	push	edx
	push	eax
	call	DWORD PTR [ecx+20]
	pop	esi

; 4601 : 	if (ddrval != DD_OK) DDERRCHK(ddrval);

	test	eax, eax
	je	SHORT $LN2@PutSprite
	push	4601					; 000011f9H
	push	OFFSET ??_C@_0EE@LHDKHKAN@c?3?2users?2administrator?2desktop?2@
	push	eax
	call	?___DDError@@YAHJPADH@Z			; ___DDError
	add	esp, 12					; 0000000cH
$LN2@PutSprite:

; 4602 : }

	mov	ecx, DWORD PTR __$ArrayPad$[ebp]
	xor	ecx, ebp
	call	@__security_check_cookie@4
	mov	esp, ebp
	pop	ebp
	ret	0
?__PutSprite@@YAXPAUIDirectDrawSurface7@@HH@Z ENDP	; __PutSprite
_TEXT	ENDS
; Function compile flags: /Ogtp
; File c:\users\administrator\desktop\김지훈 - 미러월드\1.src\dxwframe.cpp
;	COMDAT ?__PutImage@@YAXPAUIDirectDrawSurface7@@HH@Z
_TEXT	SEGMENT
_ddsd$ = -144						; size = 124
_rcDest$ = -20						; size = 16
__$ArrayPad$ = -4					; size = 4
_lpDDS$ = 8						; size = 4
_x$ = 12						; size = 4
_y$ = 16						; size = 4
?__PutImage@@YAXPAUIDirectDrawSurface7@@HH@Z PROC	; __PutImage, COMDAT

; 4575 : {	

	push	ebp
	mov	ebp, esp
	sub	esp, 144				; 00000090H
	mov	eax, DWORD PTR ___security_cookie
	xor	eax, ebp
	mov	DWORD PTR __$ArrayPad$[ebp], eax
	push	esi
	mov	esi, DWORD PTR _lpDDS$[ebp]

; 4576 : 	//// 표면의 크기 정보를 얻는다 ( 임시코드 )
; 4577 : 	DDSURFACEDESC2 ddsd;
; 4578 :     ddsd.dwSize = sizeof(ddsd);
; 4579 :     ddsd.dwFlags = DDSD_HEIGHT | DDSD_WIDTH;
; 4580 : 	lpDDS->GetSurfaceDesc(&ddsd);

	lea	ecx, DWORD PTR _ddsd$[ebp]
	push	ecx
	push	esi
	mov	DWORD PTR _ddsd$[ebp], 124		; 0000007cH
	mov	eax, DWORD PTR [esi]
	mov	DWORD PTR _ddsd$[ebp+4], 6
	call	DWORD PTR [eax+88]

; 4581 : 
; 4582 : 	/////
; 4583 : 	RECT rcDest = { x, y, x+ddsd.dwWidth, y+ddsd.dwHeight };	

	mov	ecx, DWORD PTR _x$[ebp]
	mov	eax, DWORD PTR _ddsd$[ebp+12]
	mov	edx, DWORD PTR _y$[ebp]
	add	eax, ecx
	mov	DWORD PTR _rcDest$[ebp+8], eax
	mov	eax, DWORD PTR _ddsd$[ebp+8]

; 4584 : 	HRESULT ddrval = g_pDDSBack->Blt(&rcDest, lpDDS, NULL, DDBLT_WAIT, NULL);

	push	0
	add	eax, edx
	mov	DWORD PTR _rcDest$[ebp+4], edx
	push	16777216				; 01000000H
	mov	DWORD PTR _rcDest$[ebp+12], eax
	lea	edx, DWORD PTR _rcDest$[ebp]
	mov	eax, DWORD PTR ?g_pDDSBack@@3PAUIDirectDrawSurface7@@A ; g_pDDSBack
	push	0
	push	esi
	mov	DWORD PTR _rcDest$[ebp], ecx
	mov	ecx, DWORD PTR [eax]
	push	edx
	push	eax
	call	DWORD PTR [ecx+20]
	pop	esi

; 4585 : 	if (ddrval != DD_OK) DDERRCHK(ddrval);

	test	eax, eax
	je	SHORT $LN2@PutImage
	push	4585					; 000011e9H
	push	OFFSET ??_C@_0EE@LHDKHKAN@c?3?2users?2administrator?2desktop?2@
	push	eax
	call	?___DDError@@YAHJPADH@Z			; ___DDError
	add	esp, 12					; 0000000cH
$LN2@PutImage:

; 4586 : }

	mov	ecx, DWORD PTR __$ArrayPad$[ebp]
	xor	ecx, ebp
	call	@__security_check_cookie@4
	mov	esp, ebp
	pop	ebp
	ret	0
?__PutImage@@YAXPAUIDirectDrawSurface7@@HH@Z ENDP	; __PutImage
_TEXT	ENDS
; Function compile flags: /Ogtp
; File c:\users\administrator\desktop\김지훈 - 미러월드\1.src\dxwframe.cpp
;	COMDAT ?__MEM2DDS@@YAHPAUIDirectDrawSurface7@@PAEHH@Z
_TEXT	SEGMENT
_lpDstDDS$GSCopy$1$ = -132				; size = 4
_ddsd$ = -128						; size = 124
__$ArrayPad$ = -4					; size = 4
_lpDstDDS$ = 8						; size = 4
_lpSrcMem$ = 12						; size = 4
_nWidth$ = 16						; size = 4
_nHeight$ = 20						; size = 4
?__MEM2DDS@@YAHPAUIDirectDrawSurface7@@PAEHH@Z PROC	; __MEM2DDS, COMDAT

; 4534 : {

	push	ebp
	mov	ebp, esp
	sub	esp, 132				; 00000084H
	mov	eax, DWORD PTR ___security_cookie
	xor	eax, ebp
	mov	DWORD PTR __$ArrayPad$[ebp], eax

; 4535 : 	int iy;
; 4536 : 	DDSURFACEDESC2 ddsd;
; 4537 : 	HRESULT hRet;
; 4538 : 		
; 4539 : 	int nWidthStep=0;
; 4540 : 
; 4541 : 	//// 비트카운트에 따라 계산된 가로폭을 구한다
; 4542 : 	switch (g_dwRGBBitCount)

	mov	eax, DWORD PTR ?g_dwRGBBitCount@@3KA	; g_dwRGBBitCount
	push	ebx
	mov	ebx, DWORD PTR _lpSrcMem$[ebp]
	add	eax, -8					; fffffff8H
	push	esi
	mov	esi, DWORD PTR _lpDstDDS$[ebp]
	push	edi
	xor	edi, edi
	mov	DWORD PTR _lpDstDDS$GSCopy$1$[ebp], esi
	cmp	eax, 24					; 00000018H
	ja	SHORT $LN2@MEM2DDS
	movzx	eax, BYTE PTR $LN18@MEM2DDS[eax]
	jmp	DWORD PTR $LN20@MEM2DDS[eax*4]
$LN7@MEM2DDS:

; 4543 : 	{
; 4544 : 	case  8 : nWidthStep = nWidth;      break; // 

	mov	edi, DWORD PTR _nWidth$[ebp]
	jmp	SHORT $LN2@MEM2DDS
$LN8@MEM2DDS:

; 4545 : 	case 16 : nWidthStep = nWidth << 1; break; // nWidth * 2

	mov	eax, DWORD PTR _nWidth$[ebp]
	lea	edi, DWORD PTR [eax+eax]
	jmp	SHORT $LN2@MEM2DDS
$LN9@MEM2DDS:

; 4546 : 	case 24 : nWidthStep = nWidth *  3; break; // nWidth * 3

	mov	eax, DWORD PTR _nWidth$[ebp]
	lea	edi, DWORD PTR [eax+eax*2]
	jmp	SHORT $LN2@MEM2DDS
$LN10@MEM2DDS:

; 4547 : 	case 32 : nWidthStep = nWidth << 2; break; // nWidth * 4

	mov	eax, DWORD PTR _nWidth$[ebp]
	lea	edi, DWORD PTR [eax*4]
$LN2@MEM2DDS:

; 4548 : 	}
; 4549 : 
; 4550 : 	memset(&ddsd, 0, sizeof(ddsd));

	push	120					; 00000078H
	lea	eax, DWORD PTR _ddsd$[ebp+4]
	push	0
	push	eax
	call	_memset

; 4551 : 	ddsd.dwSize = sizeof(ddsd);
; 4552 : 	
; 4553 : 	hRet = lpDstDDS->Lock(NULL, &ddsd, DDLOCK_WAIT, NULL);

	mov	eax, DWORD PTR [esi]
	lea	ecx, DWORD PTR _ddsd$[ebp]
	add	esp, 12					; 0000000cH
	mov	DWORD PTR _ddsd$[ebp], 124		; 0000007cH
	push	0
	push	1
	push	ecx
	push	0
	push	esi
	call	DWORD PTR [eax+100]

; 4554 : 	if (hRet != DD_OK) return DDERRCHK(hRet);

	test	eax, eax
	je	SHORT $LN11@MEM2DDS
	push	4554					; 000011caH
	push	OFFSET ??_C@_0EE@LHDKHKAN@c?3?2users?2administrator?2desktop?2@
	push	eax
	call	?___DDError@@YAHJPADH@Z			; ___DDError
	add	esp, 12					; 0000000cH
	pop	edi

; 4568 : 
; 4569 : 	return TRUE;
; 4570 : }

	pop	esi
	pop	ebx
	mov	ecx, DWORD PTR __$ArrayPad$[ebp]
	xor	ecx, ebp
	call	@__security_check_cookie@4
	mov	esp, ebp
	pop	ebp
	ret	0
$LN11@MEM2DDS:

; 4555 : 	
; 4556 : 	LPBYTE lpDDS = (LPBYTE) ddsd.lpSurface;
; 4557 : 
; 4558 : 	//// 메모리 전송 ( 복사 )
; 4559 : 	for (iy=0; iy < nHeight; iy++)

	cmp	DWORD PTR _nHeight$[ebp], 0
	mov	esi, DWORD PTR _ddsd$[ebp+36]
	jle	SHORT $LN5@MEM2DDS
$LL6@MEM2DDS:

; 4560 : 	{
; 4561 : 		memcpy(lpDDS, lpSrcMem, nWidthStep);

	push	edi
	push	ebx
	push	esi
	call	_memcpy

; 4562 : 		lpDDS    += ddsd.lPitch;

	add	esi, DWORD PTR _ddsd$[ebp+16]
	add	esp, 12					; 0000000cH

; 4563 : 		lpSrcMem += nWidthStep;

	add	ebx, edi
	sub	DWORD PTR _nHeight$[ebp], 1
	jne	SHORT $LL6@MEM2DDS
$LN5@MEM2DDS:

; 4564 : 	}
; 4565 : 	
; 4566 : 	hRet = lpDstDDS->Unlock(NULL);

	mov	ecx, DWORD PTR _lpDstDDS$GSCopy$1$[ebp]
	push	0
	push	ecx
	mov	eax, DWORD PTR [ecx]
	call	DWORD PTR [eax+128]

; 4567 : 	if (hRet != DD_OK) return DDERRCHK(hRet);

	test	eax, eax
	je	SHORT $LN12@MEM2DDS
	push	4567					; 000011d7H
	push	OFFSET ??_C@_0EE@LHDKHKAN@c?3?2users?2administrator?2desktop?2@
	push	eax
	call	?___DDError@@YAHJPADH@Z			; ___DDError
	add	esp, 12					; 0000000cH
	pop	edi

; 4568 : 
; 4569 : 	return TRUE;
; 4570 : }

	pop	esi
	pop	ebx
	mov	ecx, DWORD PTR __$ArrayPad$[ebp]
	xor	ecx, ebp
	call	@__security_check_cookie@4
	mov	esp, ebp
	pop	ebp
	ret	0
$LN12@MEM2DDS:
	mov	ecx, DWORD PTR __$ArrayPad$[ebp]
	mov	eax, 1
	pop	edi
	pop	esi
	xor	ecx, ebp
	pop	ebx
	call	@__security_check_cookie@4
	mov	esp, ebp
	pop	ebp
	ret	0
	npad	1
$LN20@MEM2DDS:
	DD	$LN7@MEM2DDS
	DD	$LN8@MEM2DDS
	DD	$LN9@MEM2DDS
	DD	$LN10@MEM2DDS
	DD	$LN2@MEM2DDS
$LN18@MEM2DDS:
	DB	0
	DB	4
	DB	4
	DB	4
	DB	4
	DB	4
	DB	4
	DB	4
	DB	1
	DB	4
	DB	4
	DB	4
	DB	4
	DB	4
	DB	4
	DB	4
	DB	2
	DB	4
	DB	4
	DB	4
	DB	4
	DB	4
	DB	4
	DB	4
	DB	3
?__MEM2DDS@@YAHPAUIDirectDrawSurface7@@PAEHH@Z ENDP	; __MEM2DDS
_TEXT	ENDS
; Function compile flags: /Ogtp
; File c:\users\administrator\desktop\김지훈 - 미러월드\1.src\dxwframe.cpp
;	COMDAT ?__DDLoadBin@@YAPAUIDirectDrawSurface7@@PBDH@Z
_TEXT	SEGMENT
_szBin$ = -12						; size = 8
_nSize$ = -4						; size = 4
_strFile$ = 8						; size = 4
_bIsVRAM$ = 12						; size = 4
?__DDLoadBin@@YAPAUIDirectDrawSurface7@@PBDH@Z PROC	; __DDLoadBin, COMDAT

; 4502 : {

	push	ebp
	mov	ebp, esp
	sub	esp, 12					; 0000000cH
	push	esi
	push	edi

; 4503 : 	SIZE szBin;
; 4504 : 	int nSize;
; 4505 : 
; 4506 : 	//// 파일 읽기
; 4507 : 	//// 8 바이트 : 가로, 세로크기
; 4508 : 	//// 4 바이트 : 이미지 전체 크기
; 4509 : 	FILE* file = fopen(strFile, "rb");

	push	OFFSET ??_C@_02JDPG@rb@
	push	DWORD PTR _strFile$[ebp]
	call	_fopen
	mov	esi, eax

; 4510 : 	fread(&szBin, sizeof(SIZE), 1, file);

	lea	eax, DWORD PTR _szBin$[ebp]
	push	esi
	push	1
	push	8
	push	eax
	call	_fread

; 4511 : 	fread(&nSize, sizeof(int), 1, file);	

	push	esi
	push	1
	lea	eax, DWORD PTR _nSize$[ebp]
	push	4
	push	eax
	call	_fread

; 4512 : 	LPBYTE lpImg = (LPBYTE) malloc(nSize);

	push	DWORD PTR _nSize$[ebp]
	call	_malloc

; 4513 : 	fread(lpImg, nSize, 1, file);

	push	esi
	push	1
	push	DWORD PTR _nSize$[ebp]
	mov	edi, eax
	push	edi
	call	_fread

; 4514 : 	fclose(file);

	push	esi
	call	_fclose
	add	esp, 64					; 00000040H

; 4515 : 
; 4516 : 	///// 오프스크린 생성 ( VRAM )
; 4517 : 	LPDIRECTDRAWSURFACE7 lpDDS = NULL;
; 4518 : 	lpDDS = __CreateSurface(szBin.cx, szBin.cy, bIsVRAM);

	push	DWORD PTR _bIsVRAM$[ebp]
	push	DWORD PTR _szBin$[ebp+4]
	push	DWORD PTR _szBin$[ebp]
	call	?__CreateSurface@@YAPAUIDirectDrawSurface7@@KKH@Z ; __CreateSurface
	mov	esi, eax
	add	esp, 12					; 0000000cH

; 4519 : 	if (!lpDDS) { MSGERROR("_DDLoadBin"); return NULL; }

	test	esi, esi
	jne	SHORT $LN2@DDLoadBin
	push	4519					; 000011a7H
	push	OFFSET ??_C@_0EE@LHDKHKAN@c?3?2users?2administrator?2desktop?2@
	push	OFFSET ??_C@_0L@EKKCFCMM@_DDLoadBin@
	call	?___Error@@YAHPAD0H@Z			; ___Error
	add	esp, 12					; 0000000cH
	xor	eax, eax
	pop	edi

; 4528 : }

	pop	esi
	mov	esp, ebp
	pop	ebp
	ret	0
$LN2@DDLoadBin:

; 4520 : 
; 4521 : 	///// 생성된 오프스크린에 메모리 데이타 전송
; 4522 : 	BOOL bRval = __MEM2DDS(lpDDS, lpImg, szBin.cx, szBin.cy);

	push	DWORD PTR _szBin$[ebp+4]
	push	DWORD PTR _szBin$[ebp]
	push	edi
	push	esi
	call	?__MEM2DDS@@YAHPAUIDirectDrawSurface7@@PAEHH@Z ; __MEM2DDS
	add	esp, 16					; 00000010H

; 4523 : 	if (!bRval) { MSGERROR("_DDLoadBin"); return NULL; }

	test	eax, eax
	jne	SHORT $LN3@DDLoadBin
	push	4523					; 000011abH
	push	OFFSET ??_C@_0EE@LHDKHKAN@c?3?2users?2administrator?2desktop?2@
	push	OFFSET ??_C@_0L@EKKCFCMM@_DDLoadBin@
	call	?___Error@@YAHPAD0H@Z			; ___Error
	add	esp, 12					; 0000000cH
	xor	eax, eax
	pop	edi

; 4528 : }

	pop	esi
	mov	esp, ebp
	pop	ebp
	ret	0
$LN3@DDLoadBin:

; 4524 : 
; 4525 : 	free(lpImg);

	push	edi
	call	_free
	add	esp, 4

; 4526 : 
; 4527 : 	return lpDDS;

	mov	eax, esi
	pop	edi

; 4528 : }

	pop	esi
	mov	esp, ebp
	pop	ebp
	ret	0
?__DDLoadBin@@YAPAUIDirectDrawSurface7@@PBDH@Z ENDP	; __DDLoadBin
_TEXT	ENDS
; Function compile flags: /Ogtp
; File c:\users\administrator\desktop\김지훈 - 미러월드\1.src\dxwframe.cpp
;	COMDAT ?__CPYDDS@@YAXHHPAUtagRECT@@@Z
_TEXT	SEGMENT
_nWidth$1$ = 8						; size = 4
_x$ = 8							; size = 4
_lpDst$1$ = 12						; size = 4
_y$ = 12						; size = 4
_rcSrc$ = 16						; size = 4
?__CPYDDS@@YAXHHPAUtagRECT@@@Z PROC			; __CPYDDS, COMDAT

; 5525 : {

	push	ebp
	mov	ebp, esp

; 5526 : 	LPBYTE lpSrc = (LPBYTE)g_ddsd.lpSurface + rcSrc->top*g_ddsd.lPitch+(rcSrc->left * 2);

	mov	eax, DWORD PTR _rcSrc$[ebp]
	mov	edx, DWORD PTR ?g_ddsd@@3U_DDSURFACEDESC2@@A+16
	push	ebx
	push	esi
	mov	esi, DWORD PTR [eax+4]
	push	edi
	mov	edi, DWORD PTR [eax]
	mov	eax, esi
	imul	eax, edx

; 5527 : 	LPBYTE lpDst = (LPBYTE)g_ddsd.lpSurface + y*g_ddsd.lPitch+(x * 2);

	imul	edx, DWORD PTR _y$[ebp]
	add	eax, DWORD PTR ?g_ddsd@@3U_DDSURFACEDESC2@@A+36
	add	edx, DWORD PTR ?g_ddsd@@3U_DDSURFACEDESC2@@A+36
	lea	ebx, DWORD PTR [eax+edi*2]
	mov	eax, DWORD PTR _x$[ebp]
	lea	ecx, DWORD PTR [edx+eax*2]

; 5528 : 
; 5529 : 	int nWidth = (rcSrc->right-rcSrc->left+1) * 2;

	mov	eax, DWORD PTR _rcSrc$[ebp]
	mov	DWORD PTR _lpDst$1$[ebp], ecx
	mov	eax, DWORD PTR [eax+8]
	sub	eax, edi

; 5530 : 	for (int iy=rcSrc->top; iy < rcSrc->bottom+1; iy++)

	mov	edi, DWORD PTR _rcSrc$[ebp]
	lea	edx, DWORD PTR [eax*2+2]
	mov	eax, DWORD PTR [edi+12]
	inc	eax
	mov	DWORD PTR _nWidth$1$[ebp], edx
	cmp	esi, eax
	jge	SHORT $LN3@CPYDDS
$LL4@CPYDDS:

; 5531 : 	{
; 5532 : 		memcpy(lpDst, lpSrc, nWidth);

	push	edx
	push	ebx
	push	ecx
	call	_memcpy

; 5533 : 		lpSrc += g_ddsd.lPitch;
; 5534 : 		lpDst += g_ddsd.lPitch;

	mov	ecx, DWORD PTR _lpDst$1$[ebp]
	inc	esi
	mov	eax, DWORD PTR [edi+12]
	add	esp, 12					; 0000000cH
	add	ecx, DWORD PTR ?g_ddsd@@3U_DDSURFACEDESC2@@A+16
	inc	eax
	add	ebx, DWORD PTR ?g_ddsd@@3U_DDSURFACEDESC2@@A+16
	mov	edx, DWORD PTR _nWidth$1$[ebp]
	mov	DWORD PTR _lpDst$1$[ebp], ecx
	cmp	esi, eax
	jl	SHORT $LL4@CPYDDS
$LN3@CPYDDS:
	pop	edi

; 5535 : 	}
; 5536 : }

	pop	esi
	pop	ebx
	pop	ebp
	ret	0
?__CPYDDS@@YAXHHPAUtagRECT@@@Z ENDP			; __CPYDDS
_TEXT	ENDS
; Function compile flags: /Ogtp
; File c:\users\administrator\desktop\김지훈 - 미러월드\1.src\dxwframe.cpp
;	COMDAT ?__GetPixelRGB16@@YAGHHH@Z
_TEXT	SEGMENT
_R$ = 8							; size = 4
_G$ = 12						; size = 4
_B$ = 16						; size = 4
?__GetPixelRGB16@@YAGHHH@Z PROC				; __GetPixelRGB16, COMDAT

; 5456 : {

	push	ebp
	mov	ebp, esp

; 5457 : 	WORD wPixel=0;
; 5458 : 
; 5459 : 	if (g_dwPixelFormat == RGB565)

	cmp	DWORD PTR ?g_dwPixelFormat@@3KA, 565	; g_dwPixelFormat, 00000235H
	movzx	ecx, WORD PTR _B$[ebp]
	movzx	edx, WORD PTR _G$[ebp]
	movzx	eax, WORD PTR _R$[ebp]
	jne	SHORT $LN2@GetPixelRG

; 5460 : 	{
; 5461 : 		wPixel = (R<<11) | (G<<5) | B;   // 0000 0000 0001 1111		                                 

	shl	eax, 6
	or	eax, edx
	shl	eax, 5

; 5472 : 		return wPixel;
; 5473 : 	}
; 5474 : }

	or	eax, ecx
	pop	ebp
	ret	0
$LN2@GetPixelRG:

; 5462 : 		return wPixel;					 // 0000 0111 1110 0000   5
; 5463 : 	}                                    // 1111 1000 0000 0000  11
; 5464 : 	else if (g_dwPixelFormat == RGB555)

	cmp	DWORD PTR ?g_dwPixelFormat@@3KA, 555	; g_dwPixelFormat, 0000022bH
	jne	SHORT $LN4@GetPixelRG

; 5465 : 	{
; 5466 : 		wPixel = (R<<10) | (G<<5) | B;

	shl	eax, 5
	or	eax, edx
	shl	eax, 5

; 5472 : 		return wPixel;
; 5473 : 	}
; 5474 : }

	or	eax, ecx
	pop	ebp
	ret	0
$LN4@GetPixelRG:

; 5467 : 		return wPixel;
; 5468 : 	}
; 5469 : 	else // BGR565
; 5470 : 	{
; 5471 : 		wPixel = (B<<11) | (G<<5) | R;

	shl	ecx, 6
	or	ecx, edx
	shl	ecx, 5

; 5472 : 		return wPixel;
; 5473 : 	}
; 5474 : }

	or	eax, ecx
	pop	ebp
	ret	0
?__GetPixelRGB16@@YAGHHH@Z ENDP				; __GetPixelRGB16
_TEXT	ENDS
; Function compile flags: /Ogtp
; File c:\users\administrator\desktop\김지훈 - 미러월드\1.src\dxwframe.cpp
;	COMDAT ?__CheckRGBBit@@YAKPAUIDirectDrawSurface7@@@Z
_TEXT	SEGMENT
_ddsd$ = -128						; size = 124
__$ArrayPad$ = -4					; size = 4
_lpDDS$ = 8						; size = 4
?__CheckRGBBit@@YAKPAUIDirectDrawSurface7@@@Z PROC	; __CheckRGBBit, COMDAT

; 5541 : {

	push	ebp
	mov	ebp, esp
	sub	esp, 128				; 00000080H
	mov	eax, DWORD PTR ___security_cookie
	xor	eax, ebp
	mov	DWORD PTR __$ArrayPad$[ebp], eax
	push	esi
	mov	esi, DWORD PTR _lpDDS$[ebp]

; 5542 : 	DDSURFACEDESC2 ddsd;
; 5543 : 	DWORD dwPixelFormat = 0;
; 5544 : 
; 5545 : 	::ZeroMemory(&ddsd, sizeof(ddsd));

	lea	eax, DWORD PTR _ddsd$[ebp+8]
	push	edi
	push	116					; 00000074H
	xor	edi, edi
	push	edi
	push	eax
	call	_memset

; 5546 : 	ddsd.dwSize  = sizeof(ddsd);
; 5547 :     ddsd.dwFlags = DDSD_PIXELFORMAT;
; 5548 :     HRESULT hRet = lpDDS->GetSurfaceDesc(&ddsd);

	mov	eax, DWORD PTR [esi]
	lea	ecx, DWORD PTR _ddsd$[ebp]
	add	esp, 12					; 0000000cH
	mov	DWORD PTR _ddsd$[ebp], 124		; 0000007cH
	mov	DWORD PTR _ddsd$[ebp+4], 4096		; 00001000H
	push	ecx
	push	esi
	call	DWORD PTR [eax+88]

; 5549 : 	if (hRet != DD_OK) { DDERRCHK(hRet); return dwPixelFormat; }

	test	eax, eax
	je	SHORT $LN4@CheckRGBBi
	push	5549					; 000015adH
	push	OFFSET ??_C@_0EE@LHDKHKAN@c?3?2users?2administrator?2desktop?2@
	push	eax
	call	?___DDError@@YAHJPADH@Z			; ___DDError
	add	esp, 12					; 0000000cH
	xor	eax, eax
	pop	edi

; 5562 : }

	pop	esi
	mov	ecx, DWORD PTR __$ArrayPad$[ebp]
	xor	ecx, ebp
	call	@__security_check_cookie@4
	mov	esp, ebp
	pop	ebp
	ret	0
$LN4@CheckRGBBi:

; 5550 : 		
; 5551 : 	g_dwRGBBitCount = ddsd.ddpfPixelFormat.dwRGBBitCount;

	mov	eax, DWORD PTR _ddsd$[ebp+84]
	mov	DWORD PTR ?g_dwRGBBitCount@@3KA, eax	; g_dwRGBBitCount

; 5552 : 	switch(ddsd.ddpfPixelFormat.dwRBitMask)

	mov	eax, DWORD PTR _ddsd$[ebp+88]
	cmp	eax, 31744				; 00007c00H
	ja	SHORT $LN11@CheckRGBBi
	je	SHORT $LN6@CheckRGBBi
	cmp	eax, 31					; 0000001fH
	je	SHORT $LN7@CheckRGBBi
	cmp	eax, 255				; 000000ffH
	jne	SHORT $LN2@CheckRGBBi

; 5558 : 	case 0x0000FF : dwPixelFormat = BGR888; break;    // 00000000 00000000 11111111

	mov	edi, -888				; fffffc88H

; 5559 : 	}
; 5560 : 
; 5561 : 	return dwPixelFormat;

	mov	eax, edi
	pop	edi

; 5562 : }

	pop	esi
	mov	ecx, DWORD PTR __$ArrayPad$[ebp]
	xor	ecx, ebp
	call	@__security_check_cookie@4
	mov	esp, ebp
	pop	ebp
	ret	0
$LN7@CheckRGBBi:

; 5556 : 	case 0x001F   : dwPixelFormat = BGR565; break;    // 00000000 00011111

	mov	edi, -565				; fffffdcbH

; 5559 : 	}
; 5560 : 
; 5561 : 	return dwPixelFormat;

	mov	eax, edi
	pop	edi

; 5562 : }

	pop	esi
	mov	ecx, DWORD PTR __$ArrayPad$[ebp]
	xor	ecx, ebp
	call	@__security_check_cookie@4
	mov	esp, ebp
	pop	ebp
	ret	0
$LN6@CheckRGBBi:

; 5555 : 	case 0x7C00   : dwPixelFormat = RGB555; break;    // 01111100 00000000

	mov	edi, 555				; 0000022bH

; 5559 : 	}
; 5560 : 
; 5561 : 	return dwPixelFormat;

	mov	eax, edi
	pop	edi

; 5562 : }

	pop	esi
	mov	ecx, DWORD PTR __$ArrayPad$[ebp]
	xor	ecx, ebp
	call	@__security_check_cookie@4
	mov	esp, ebp
	pop	ebp
	ret	0
$LN11@CheckRGBBi:

; 5552 : 	switch(ddsd.ddpfPixelFormat.dwRBitMask)

	cmp	eax, 63488				; 0000f800H
	je	SHORT $LN5@CheckRGBBi
	cmp	eax, 16711680				; 00ff0000H
	jne	SHORT $LN2@CheckRGBBi

; 5557 : 	case 0xFF0000 : dwPixelFormat = RGB888; break;    // 11111111 00000000 00000000

	mov	edi, 888				; 00000378H

; 5559 : 	}
; 5560 : 
; 5561 : 	return dwPixelFormat;

	mov	eax, edi
	pop	edi

; 5562 : }

	pop	esi
	mov	ecx, DWORD PTR __$ArrayPad$[ebp]
	xor	ecx, ebp
	call	@__security_check_cookie@4
	mov	esp, ebp
	pop	ebp
	ret	0
$LN5@CheckRGBBi:

; 5553 : 	{
; 5554 : 	case 0xF800   : dwPixelFormat = RGB565; break;    // 11111000 00000000

	mov	edi, 565				; 00000235H
$LN2@CheckRGBBi:

; 5562 : }

	mov	ecx, DWORD PTR __$ArrayPad$[ebp]
	mov	eax, edi
	pop	edi
	xor	ecx, ebp
	pop	esi
	call	@__security_check_cookie@4
	mov	esp, ebp
	pop	ebp
	ret	0
?__CheckRGBBit@@YAKPAUIDirectDrawSurface7@@@Z ENDP	; __CheckRGBBit
_TEXT	ENDS
; Function compile flags: /Ogtp
; File c:\users\administrator\desktop\김지훈 - 미러월드\1.src\dxwframe.cpp
;	COMDAT ?__DrawRect16@@YAXHHHHG@Z
_TEXT	SEGMENT
_x1$ = 8						; size = 4
_y1$ = 12						; size = 4
_x2$ = 16						; size = 4
_y2$ = 20						; size = 4
_wColor$ = 24						; size = 2
?__DrawRect16@@YAXHHHHG@Z PROC				; __DrawRect16, COMDAT

; 5508 : {

	push	ebp
	mov	ebp, esp
	push	ebx

; 5509 :     ///// 가로
; 5510 : 	__DrawHLine16(x1, y1, x2, wColor);

	mov	ebx, DWORD PTR _x1$[ebp]
	push	esi
	mov	esi, DWORD PTR _wColor$[ebp]
	push	edi
	mov	edi, DWORD PTR _y1$[ebp]
	push	esi
	push	DWORD PTR _x2$[ebp]
	push	edi
	push	ebx
	call	?__DrawHLine16@@YAXHHHG@Z		; __DrawHLine16

; 5511 : 	__DrawHLine16(x1, y2, x2, wColor);

	push	esi
	push	DWORD PTR _x2$[ebp]
	mov	esi, DWORD PTR _y2$[ebp]
	push	esi
	push	ebx
	call	?__DrawHLine16@@YAXHHHG@Z		; __DrawHLine16

; 5512 : 
; 5513 : 	///// 세로
; 5514 : 	__DrawVLine16(x1, y1+1, y2-1, wColor);

	push	DWORD PTR _wColor$[ebp]
	dec	esi
	inc	edi
	push	esi
	push	edi
	push	ebx
	call	?__DrawVLine16@@YAXHHHG@Z		; __DrawVLine16

; 5515 : 	__DrawVLine16(x2, y1+1, y2-1, wColor);

	push	DWORD PTR _wColor$[ebp]
	push	esi
	push	edi
	push	DWORD PTR _x2$[ebp]
	call	?__DrawVLine16@@YAXHHHG@Z		; __DrawVLine16
	add	esp, 64					; 00000040H
	pop	edi
	pop	esi
	pop	ebx

; 5516 : }

	pop	ebp
	ret	0
?__DrawRect16@@YAXHHHHG@Z ENDP				; __DrawRect16
_TEXT	ENDS
; Function compile flags: /Ogtp
; File c:\users\administrator\desktop\김지훈 - 미러월드\1.src\dxwframe.cpp
;	COMDAT ?__DrawHLine16@@YAXHHHG@Z
_TEXT	SEGMENT
_x1$ = 8						; size = 4
_y$ = 12						; size = 4
_x2$ = 16						; size = 4
_wColor$ = 20						; size = 2
?__DrawHLine16@@YAXHHHG@Z PROC				; __DrawHLine16, COMDAT

; 5495 : {

	push	ebp
	mov	ebp, esp

; 5496 : 	LPBYTE lpDDS = (LPBYTE) g_ddsd.lpSurface;
; 5497 : 	WORD* lpDst = (WORD*) (lpDDS + y*g_ddsd.lPitch+(x1 * 2));

	mov	eax, DWORD PTR ?g_ddsd@@3U_DDSURFACEDESC2@@A+16
	imul	eax, DWORD PTR _y$[ebp]
	mov	ecx, DWORD PTR _x1$[ebp]
	push	edi
	add	eax, DWORD PTR ?g_ddsd@@3U_DDSURFACEDESC2@@A+36
	lea	edi, DWORD PTR [eax+ecx*2]

; 5498 : 
; 5499 : 	for (int ix=x1; ix <= x2; ix++)

	mov	eax, DWORD PTR _x2$[ebp]
	cmp	ecx, eax
	jg	SHORT $LN3@DrawHLine1

; 5496 : 	LPBYTE lpDDS = (LPBYTE) g_ddsd.lpSurface;
; 5497 : 	WORD* lpDst = (WORD*) (lpDDS + y*g_ddsd.lPitch+(x1 * 2));

	sub	eax, ecx
	lea	ecx, DWORD PTR [eax*2+2]
	mov	eax, DWORD PTR _wColor$[ebp]
	movzx	edx, ax
	shr	ecx, 1
	mov	eax, edx
	shl	edx, 16					; 00000010H
	or	eax, edx
	shr	ecx, 1
	rep stosd
	adc	ecx, ecx
	rep stosw
$LN3@DrawHLine1:
	pop	edi

; 5500 : 	{
; 5501 : 		*lpDst = wColor;
; 5502 : 		lpDst++;
; 5503 : 	}
; 5504 : }

	pop	ebp
	ret	0
?__DrawHLine16@@YAXHHHG@Z ENDP				; __DrawHLine16
_TEXT	ENDS
; Function compile flags: /Ogtp
; File c:\users\administrator\desktop\김지훈 - 미러월드\1.src\dxwframe.cpp
;	COMDAT ?__DrawVLine16@@YAXHHHG@Z
_TEXT	SEGMENT
_x$ = 8							; size = 4
_y1$ = 12						; size = 4
_y2$ = 16						; size = 4
_wColor$ = 20						; size = 2
?__DrawVLine16@@YAXHHHG@Z PROC				; __DrawVLine16, COMDAT

; 5481 : {

	push	ebp
	mov	ebp, esp

; 5482 : 	LPBYTE lpDDS = (LPBYTE) g_ddsd.lpSurface;	
; 5483 : 	WORD* lpDst = (WORD*) (lpDDS + y1*g_ddsd.lPitch+(x * 2));	

	mov	edx, DWORD PTR ?g_ddsd@@3U_DDSURFACEDESC2@@A+16
	mov	ecx, edx
	mov	eax, DWORD PTR _x$[ebp]
	push	esi
	mov	esi, DWORD PTR _y1$[ebp]
	imul	ecx, esi

; 5484 : 	
; 5485 : 	int nPitch = g_ddsd.lPitch>>1; // g_ddsd.lPitch/2

	sar	edx, 1
	add	ecx, DWORD PTR ?g_ddsd@@3U_DDSURFACEDESC2@@A+36
	lea	eax, DWORD PTR [ecx+eax*2]

; 5486 : 	for (int iy=y1; iy <= y2; iy++)

	mov	ecx, DWORD PTR _y2$[ebp]
	cmp	esi, ecx
	jg	SHORT $LN3@DrawVLine1

; 5482 : 	LPBYTE lpDDS = (LPBYTE) g_ddsd.lpSurface;	
; 5483 : 	WORD* lpDst = (WORD*) (lpDDS + y1*g_ddsd.lPitch+(x * 2));	

	sub	ecx, esi
	add	edx, edx
	mov	si, WORD PTR _wColor$[ebp]
	inc	ecx
$LL4@DrawVLine1:

; 5487 : 	{
; 5488 : 		*lpDst = wColor;

	mov	WORD PTR [eax], si

; 5489 : 		lpDst += nPitch;

	add	eax, edx
	sub	ecx, 1
	jne	SHORT $LL4@DrawVLine1
$LN3@DrawVLine1:
	pop	esi

; 5490 : 	}
; 5491 : }

	pop	ebp
	ret	0
?__DrawVLine16@@YAXHHHG@Z ENDP				; __DrawVLine16
_TEXT	ENDS
; Function compile flags: /Ogtp
; File c:\users\administrator\desktop\김지훈 - 미러월드\1.src\dxwframe.cpp
;	COMDAT ?__GetPixel16@@YAGHH@Z
_TEXT	SEGMENT
_x$ = 8							; size = 4
_y$ = 12						; size = 4
?__GetPixel16@@YAGHH@Z PROC				; __GetPixel16, COMDAT

; 5446 : {

	push	ebp
	mov	ebp, esp

; 5447 : 	LPBYTE lpDDS = (LPBYTE) g_ddsd.lpSurface;
; 5448 : 	WORD* pPixel = (WORD*) (lpDDS + y*g_ddsd.lPitch+(x * 2));

	mov	ecx, DWORD PTR ?g_ddsd@@3U_DDSURFACEDESC2@@A+16
	imul	ecx, DWORD PTR _y$[ebp]

; 5449 : 	
; 5450 : 	return *pPixel;

	mov	eax, DWORD PTR _x$[ebp]
	add	ecx, DWORD PTR ?g_ddsd@@3U_DDSURFACEDESC2@@A+36
	mov	ax, WORD PTR [ecx+eax*2]

; 5451 : }

	pop	ebp
	ret	0
?__GetPixel16@@YAGHH@Z ENDP				; __GetPixel16
_TEXT	ENDS
; Function compile flags: /Ogtp
; File c:\users\administrator\desktop\김지훈 - 미러월드\1.src\dxwframe.cpp
;	COMDAT ?__PutPixel8@@YAXHHE@Z
_TEXT	SEGMENT
_x$ = 8							; size = 4
_y$ = 12						; size = 4
_bColor$ = 16						; size = 1
?__PutPixel8@@YAXHHE@Z PROC				; __PutPixel8, COMDAT

; 5423 : {

	push	ebp
	mov	ebp, esp

; 5424 : 	LPBYTE lpDDS = (LPBYTE) g_ddsd.lpSurface;
; 5425 : 	lpDDS[y * g_ddsd.lPitch + x] = bColor;

	mov	edx, DWORD PTR ?g_ddsd@@3U_DDSURFACEDESC2@@A+16
	imul	edx, DWORD PTR _y$[ebp]
	mov	eax, DWORD PTR _x$[ebp]
	mov	cl, BYTE PTR _bColor$[ebp]
	add	edx, DWORD PTR ?g_ddsd@@3U_DDSURFACEDESC2@@A+36
	mov	BYTE PTR [edx+eax], cl

; 5426 : }

	pop	ebp
	ret	0
?__PutPixel8@@YAXHHE@Z ENDP				; __PutPixel8
_TEXT	ENDS
; Function compile flags: /Ogtp
; File c:\users\administrator\desktop\김지훈 - 미러월드\1.src\dxwframe.cpp
;	COMDAT ?__PutPixel16@@YAXHHG@Z
_TEXT	SEGMENT
_x$ = 8							; size = 4
_y$ = 12						; size = 4
_wColor$ = 16						; size = 2
?__PutPixel16@@YAXHHG@Z PROC				; __PutPixel16, COMDAT

; 5429 : {

	push	ebp
	mov	ebp, esp

; 5430 : 	LPBYTE lpDDS = (LPBYTE) g_ddsd.lpSurface;
; 5431 : 	WORD* lpDst = (WORD*) (lpDDS + y*g_ddsd.lPitch+(x * 2));

	mov	edx, DWORD PTR ?g_ddsd@@3U_DDSURFACEDESC2@@A+16
	imul	edx, DWORD PTR _y$[ebp]

; 5432 : 
; 5433 : 	*lpDst = wColor;

	mov	eax, DWORD PTR _x$[ebp]
	mov	cx, WORD PTR _wColor$[ebp]
	add	edx, DWORD PTR ?g_ddsd@@3U_DDSURFACEDESC2@@A+36
	mov	WORD PTR [edx+eax*2], cx

; 5434 : }

	pop	ebp
	ret	0
?__PutPixel16@@YAXHHG@Z ENDP				; __PutPixel16
_TEXT	ENDS
; Function compile flags: /Ogtp
; File c:\users\administrator\desktop\김지훈 - 미러월드\1.src\dxwframe.cpp
;	COMDAT ?__PutPixel32@@YAXHHK@Z
_TEXT	SEGMENT
_x$ = 8							; size = 4
_y$ = 12						; size = 4
_dwColor$ = 16						; size = 4
?__PutPixel32@@YAXHHK@Z PROC				; __PutPixel32, COMDAT

; 5437 : {

	push	ebp
	mov	ebp, esp

; 5438 : 	LPBYTE lpDDS = (LPBYTE) g_ddsd.lpSurface;
; 5439 : 	
; 5440 : 	DWORD* lpDst = (DWORD*) (lpDDS + y*g_ddsd.lPitch+(x * 4));	

	mov	edx, DWORD PTR ?g_ddsd@@3U_DDSURFACEDESC2@@A+16
	imul	edx, DWORD PTR _y$[ebp]

; 5441 : 
; 5442 : 	*lpDst = dwColor;	

	mov	eax, DWORD PTR _x$[ebp]
	mov	ecx, DWORD PTR _dwColor$[ebp]
	add	edx, DWORD PTR ?g_ddsd@@3U_DDSURFACEDESC2@@A+36
	mov	DWORD PTR [edx+eax*4], ecx

; 5443 : }

	pop	ebp
	ret	0
?__PutPixel32@@YAXHHK@Z ENDP				; __PutPixel32
_TEXT	ENDS
; Function compile flags: /Ogtp
; File c:\users\administrator\desktop\김지훈 - 미러월드\1.src\dxwframe.cpp
;	COMDAT ?__Unlock@@YAHPAUIDirectDrawSurface7@@@Z
_TEXT	SEGMENT
_pDDSDest$ = 8						; size = 4
?__Unlock@@YAHPAUIDirectDrawSurface7@@@Z PROC		; __Unlock, COMDAT

; 5412 : {

	push	ebp
	mov	ebp, esp

; 5413 : 	HRESULT hRet = pDDSDest->Unlock(NULL);

	mov	eax, DWORD PTR _pDDSDest$[ebp]
	push	0
	push	eax
	mov	ecx, DWORD PTR [eax]
	call	DWORD PTR [ecx+128]

; 5414 : 	if (hRet != DD_OK) { return DDERRCHK(hRet); }

	test	eax, eax
	je	SHORT $LN2@Unlock
	push	5414					; 00001526H
	push	OFFSET ??_C@_0EE@LHDKHKAN@c?3?2users?2administrator?2desktop?2@
	push	eax
	call	?___DDError@@YAHJPADH@Z			; ___DDError
	add	esp, 12					; 0000000cH

; 5417 : }

	pop	ebp
	ret	0
$LN2@Unlock:

; 5415 : 
; 5416 : 	return TRUE;

	mov	eax, 1

; 5417 : }

	pop	ebp
	ret	0
?__Unlock@@YAHPAUIDirectDrawSurface7@@@Z ENDP		; __Unlock
_TEXT	ENDS
; Function compile flags: /Ogtp
; File c:\users\administrator\desktop\김지훈 - 미러월드\1.src\dxwframe.cpp
;	COMDAT ?__Lock@@YAHPAUIDirectDrawSurface7@@@Z
_TEXT	SEGMENT
_pDDSDest$ = 8						; size = 4
?__Lock@@YAHPAUIDirectDrawSurface7@@@Z PROC		; __Lock, COMDAT

; 5402 : {	

	push	ebp
	mov	ebp, esp

; 5403 :     ::ZeroMemory(&g_ddsd, sizeof(DDSURFACEDESC2));

	push	120					; 00000078H
	push	0
	push	OFFSET ?g_ddsd@@3U_DDSURFACEDESC2@@A+4
	call	_memset

; 5404 : 	g_ddsd.dwSize = sizeof(DDSURFACEDESC2);
; 5405 : 	HRESULT hRet = pDDSDest->Lock(NULL, &g_ddsd, DDLOCK_WAIT, NULL);	

	mov	eax, DWORD PTR _pDDSDest$[ebp]
	add	esp, 12					; 0000000cH
	mov	DWORD PTR ?g_ddsd@@3U_DDSURFACEDESC2@@A, 124 ; 0000007cH
	mov	ecx, DWORD PTR [eax]
	push	0
	push	1
	push	OFFSET ?g_ddsd@@3U_DDSURFACEDESC2@@A	; g_ddsd
	push	0
	push	eax
	call	DWORD PTR [ecx+100]

; 5406 :     if (hRet != DD_OK) { return DDERRCHK(hRet); }

	test	eax, eax
	je	SHORT $LN2@Lock
	push	5406					; 0000151eH
	push	OFFSET ??_C@_0EE@LHDKHKAN@c?3?2users?2administrator?2desktop?2@
	push	eax
	call	?___DDError@@YAHJPADH@Z			; ___DDError
	add	esp, 12					; 0000000cH

; 5409 : }

	pop	ebp
	ret	0
$LN2@Lock:

; 5407 : 	
; 5408 : 	return TRUE;

	mov	eax, 1

; 5409 : }

	pop	ebp
	ret	0
?__Lock@@YAHPAUIDirectDrawSurface7@@@Z ENDP		; __Lock
_TEXT	ENDS
; Function compile flags: /Ogtp
; File c:\users\administrator\desktop\김지훈 - 미러월드\1.src\dxwframe.cpp
;	COMDAT ?_FillRectEx@@YAXPAUIDirectDrawSurface7@@PAUtagRECT@@K@Z
_TEXT	SEGMENT
_ddbltfx$ = -100					; size = 100
_lpDDSDest$ = 8						; size = 4
_lpRect$ = 12						; size = 4
_dwColor$ = 16						; size = 4
?_FillRectEx@@YAXPAUIDirectDrawSurface7@@PAUtagRECT@@K@Z PROC ; _FillRectEx, COMDAT

; 5923 : {

	push	ebp
	mov	ebp, esp
	sub	esp, 100				; 00000064H

; 5924 : 	DDBLTFX ddbltfx;	
; 5925 : 	
; 5926 : 	ZeroMemory(&ddbltfx, sizeof(ddbltfx));

	push	100					; 00000064H
	lea	eax, DWORD PTR _ddbltfx$[ebp]
	push	0
	push	eax
	call	_memset

; 5927 : 	ddbltfx.dwSize = sizeof(ddbltfx);
; 5928 : 	ddbltfx.dwFillColor = dwColor;

	mov	eax, DWORD PTR _dwColor$[ebp]

; 5929 : 
; 5930 : 	HRESULT ddrval = lpDDSDest->Blt(lpRect, NULL, NULL, DDBLT_WAIT | DDBLT_COLORFILL, &ddbltfx);

	lea	edx, DWORD PTR _ddbltfx$[ebp]
	add	esp, 12					; 0000000cH
	mov	DWORD PTR _ddbltfx$[ebp+80], eax
	mov	eax, DWORD PTR _lpDDSDest$[ebp]
	mov	DWORD PTR _ddbltfx$[ebp], 100		; 00000064H
	push	edx
	mov	ecx, DWORD PTR [eax]
	push	16778240				; 01000400H
	push	0
	push	0
	push	DWORD PTR _lpRect$[ebp]
	push	eax
	call	DWORD PTR [ecx+20]

; 5931 : 	if (ddrval != DD_OK) DDERRCHK(ddrval);

	test	eax, eax
	je	SHORT $LN2@FillRectEx
	push	5931					; 0000172bH
	push	OFFSET ??_C@_0EE@LHDKHKAN@c?3?2users?2administrator?2desktop?2@
	push	eax
	call	?___DDError@@YAHJPADH@Z			; ___DDError
	add	esp, 12					; 0000000cH
$LN2@FillRectEx:

; 5932 : }

	mov	esp, ebp
	pop	ebp
	ret	0
?_FillRectEx@@YAXPAUIDirectDrawSurface7@@PAUtagRECT@@K@Z ENDP ; _FillRectEx
_TEXT	ENDS
; Function compile flags: /Ogtp
; File c:\users\administrator\desktop\김지훈 - 미러월드\1.src\dxwframe.cpp
;	COMDAT ?__ReleaseDC@@YAXPAUIDirectDrawSurface7@@@Z
_TEXT	SEGMENT
_lpDDSDest$ = 8						; size = 4
?__ReleaseDC@@YAXPAUIDirectDrawSurface7@@@Z PROC	; __ReleaseDC, COMDAT

; 5835 : {

	push	ebp
	mov	ebp, esp

; 5836 :     lpDDSDest->ReleaseDC(gHdc);

	mov	eax, DWORD PTR _lpDDSDest$[ebp]
	push	DWORD PTR ?gHdc@@3PAUHDC__@@A		; gHdc
	push	eax
	mov	ecx, DWORD PTR [eax]
	call	DWORD PTR [ecx+104]

; 5837 : }

	pop	ebp
	ret	0
?__ReleaseDC@@YAXPAUIDirectDrawSurface7@@@Z ENDP	; __ReleaseDC
_TEXT	ENDS
; Function compile flags: /Ogtp
; File c:\users\administrator\desktop\김지훈 - 미러월드\1.src\dxwframe.cpp
;	COMDAT ?__GetDC@@YAXPAUIDirectDrawSurface7@@@Z
_TEXT	SEGMENT
_lpDDSDest$ = 8						; size = 4
?__GetDC@@YAXPAUIDirectDrawSurface7@@@Z PROC		; __GetDC, COMDAT

; 5830 : {    

	push	ebp
	mov	ebp, esp

; 5831 :     lpDDSDest->GetDC(&gHdc);

	mov	eax, DWORD PTR _lpDDSDest$[ebp]
	push	OFFSET ?gHdc@@3PAUHDC__@@A		; gHdc
	push	eax
	mov	ecx, DWORD PTR [eax]
	call	DWORD PTR [ecx+68]

; 5832 : }

	pop	ebp
	ret	0
?__GetDC@@YAXPAUIDirectDrawSurface7@@@Z ENDP		; __GetDC
_TEXT	ENDS
; Function compile flags: /Ogtp
; File c:\users\administrator\desktop\김지훈 - 미러월드\1.src\dxwframe.cpp
; File c:\program files (x86)\windows kits\10\include\10.0.17763.0\ucrt\stdio.h
; File c:\users\administrator\desktop\김지훈 - 미러월드\1.src\dxwframe.cpp
;	COMDAT ?__PutTextf@@YAXHHKPADZZ
_TEXT	SEGMENT
_pOldFont$1$ = -520					; size = 4
_buf$ = -516						; size = 512
__$ArrayPad$ = -4					; size = 4
_x$ = 8							; size = 4
_y$ = 12						; size = 4
_Color$ = 16						; size = 4
_format$ = 20						; size = 4
?__PutTextf@@YAXHHKPADZZ PROC				; __PutTextf, COMDAT

; 5874 : {

	push	ebp
	mov	ebp, esp
	sub	esp, 520				; 00000208H
	mov	eax, DWORD PTR ___security_cookie
	xor	eax, ebp
	mov	DWORD PTR __$ArrayPad$[ebp], eax
; File c:\program files (x86)\windows kits\10\include\10.0.17763.0\ucrt\stdio.h

; 1390 :         int const _Result = __stdio_common_vsprintf(

	lea	eax, DWORD PTR _format$[ebp+4]
	push	eax
	push	0
	push	DWORD PTR _format$[ebp]
	lea	eax, DWORD PTR _buf$[ebp]
	push	-1
	push	eax
	call	___local_stdio_printf_options
	mov	ecx, DWORD PTR [eax]
	push	DWORD PTR [eax+4]
	or	ecx, 1
	push	ecx
	call	___stdio_common_vsprintf
	add	esp, 28					; 0000001cH
; File c:\users\administrator\desktop\김지훈 - 미러월드\1.src\dxwframe.cpp

; 5882 :     SetBkMode(gHdc, TRANSPARENT);	

	push	1
	push	DWORD PTR ?gHdc@@3PAUHDC__@@A		; gHdc
	call	DWORD PTR __imp__SetBkMode@8

; 5883 :     HFONT* pOldFont = (HFONT*) SelectObject(gHdc, gFont);

	push	DWORD PTR ?gFont@@3PAUHFONT__@@A	; gFont
	push	DWORD PTR ?gHdc@@3PAUHDC__@@A		; gHdc
	call	DWORD PTR __imp__SelectObject@8

; 5884 : 	
; 5885 : 	///// 그림자
; 5886 : 	SetTextColor(gHdc, RGB(0,0,0));

	push	0
	push	DWORD PTR ?gHdc@@3PAUHDC__@@A		; gHdc
	mov	DWORD PTR _pOldFont$1$[ebp], eax
	call	DWORD PTR __imp__SetTextColor@8

; 5887 : 	TextOut(gHdc, x+1, y+1, buf, strlen(buf));

	lea	ecx, DWORD PTR _buf$[ebp]
	lea	edx, DWORD PTR [ecx+1]
$LL7@PutTextf:
	mov	al, BYTE PTR [ecx]
	inc	ecx
	test	al, al
	jne	SHORT $LL7@PutTextf
	push	esi
	mov	esi, DWORD PTR _y$[ebp]
	lea	eax, DWORD PTR _buf$[ebp]
	push	edi
	mov	edi, DWORD PTR _x$[ebp]
	sub	ecx, edx
	push	ecx
	push	eax
	lea	eax, DWORD PTR [esi+1]
	push	eax
	lea	eax, DWORD PTR [edi+1]
	push	eax
	push	DWORD PTR ?gHdc@@3PAUHDC__@@A		; gHdc
	call	DWORD PTR __imp__TextOutA@20

; 5888 : 	
; 5889 : 	///// 폰트
; 5890 : 	SetTextColor(gHdc, Color);

	push	DWORD PTR _Color$[ebp]
	push	DWORD PTR ?gHdc@@3PAUHDC__@@A		; gHdc
	call	DWORD PTR __imp__SetTextColor@8

; 5891 : 	TextOut(gHdc, x, y, buf, strlen(buf));

	lea	eax, DWORD PTR _buf$[ebp]
	lea	edx, DWORD PTR [eax+1]
	npad	3
$LL8@PutTextf:
	mov	cl, BYTE PTR [eax]
	inc	eax
	test	cl, cl
	jne	SHORT $LL8@PutTextf
	sub	eax, edx
	push	eax
	lea	eax, DWORD PTR _buf$[ebp]
	push	eax
	push	esi
	push	edi
	push	DWORD PTR ?gHdc@@3PAUHDC__@@A		; gHdc
	call	DWORD PTR __imp__TextOutA@20

; 5892 :     SelectObject(gHdc, pOldFont);

	push	DWORD PTR _pOldFont$1$[ebp]
	push	DWORD PTR ?gHdc@@3PAUHDC__@@A		; gHdc
	call	DWORD PTR __imp__SelectObject@8

; 5893 : }

	mov	ecx, DWORD PTR __$ArrayPad$[ebp]
	pop	edi
	xor	ecx, ebp
	pop	esi
	call	@__security_check_cookie@4
	mov	esp, ebp
	pop	ebp
	ret	0
?__PutTextf@@YAXHHKPADZZ ENDP				; __PutTextf
_TEXT	ENDS
; Function compile flags: /Ogtp
; File c:\users\administrator\desktop\김지훈 - 미러월드\1.src\dxwframe.cpp
;	COMDAT ?__PutText@@YAXHHKPBD@Z
_TEXT	SEGMENT
_x$ = 8							; size = 4
_y$ = 12						; size = 4
_Color$ = 16						; size = 4
_pString$ = 20						; size = 4
?__PutText@@YAXHHKPBD@Z PROC				; __PutText, COMDAT

; 5865 : {

	push	ebp
	mov	ebp, esp
	push	ebx
	push	edi

; 5866 : 	SetBkMode(gHdc, TRANSPARENT);

	push	1
	push	DWORD PTR ?gHdc@@3PAUHDC__@@A		; gHdc
	call	DWORD PTR __imp__SetBkMode@8

; 5867 : 	HFONT* pOldFont = (HFONT*) SelectObject(gHdc, gFont);

	push	DWORD PTR ?gFont@@3PAUHFONT__@@A	; gFont
	push	DWORD PTR ?gHdc@@3PAUHDC__@@A		; gHdc
	call	DWORD PTR __imp__SelectObject@8

; 5868 : 	SetTextColor(gHdc, Color);

	push	DWORD PTR _Color$[ebp]
	mov	edi, eax
	push	DWORD PTR ?gHdc@@3PAUHDC__@@A		; gHdc
	call	DWORD PTR __imp__SetTextColor@8

; 5869 : 	TextOut(gHdc, x, y, pString, strlen(pString));

	mov	edx, DWORD PTR _pString$[ebp]
	mov	ecx, edx
	lea	ebx, DWORD PTR [ecx+1]
	npad	2
$LL3@PutText:
	mov	al, BYTE PTR [ecx]
	inc	ecx
	test	al, al
	jne	SHORT $LL3@PutText
	sub	ecx, ebx
	push	ecx
	push	edx
	push	DWORD PTR _y$[ebp]
	push	DWORD PTR _x$[ebp]
	push	DWORD PTR ?gHdc@@3PAUHDC__@@A		; gHdc
	call	DWORD PTR __imp__TextOutA@20

; 5870 :     SelectObject(gHdc, pOldFont);

	push	edi
	push	DWORD PTR ?gHdc@@3PAUHDC__@@A		; gHdc
	call	DWORD PTR __imp__SelectObject@8
	pop	edi
	pop	ebx

; 5871 : }

	pop	ebp
	ret	0
?__PutText@@YAXHHKPBD@Z ENDP				; __PutText
_TEXT	ENDS
; Function compile flags: /Ogtp
; File c:\users\administrator\desktop\김지훈 - 미러월드\1.src\dxwframe.cpp
;	COMDAT ?__DestroyFont@@YAXXZ
_TEXT	SEGMENT
?__DestroyFont@@YAXXZ PROC				; __DestroyFont, COMDAT

; 5857 : 	if (gFont) 

	mov	eax, DWORD PTR ?gFont@@3PAUHFONT__@@A	; gFont
	test	eax, eax
	je	SHORT $LN2@DestroyFon

; 5858 : 	{
; 5859 : 		DeleteObject(gFont);

	push	eax
	call	DWORD PTR __imp__DeleteObject@4

; 5860 : 		gFont = NULL;

	mov	DWORD PTR ?gFont@@3PAUHFONT__@@A, 0	; gFont
$LN2@DestroyFon:

; 5861 : 	}
; 5862 : }

	ret	0
?__DestroyFont@@YAXXZ ENDP				; __DestroyFont
_TEXT	ENDS
; Function compile flags: /Ogtp
; File c:\users\administrator\desktop\김지훈 - 미러월드\1.src\dxwframe.cpp
;	COMDAT ?__CreateFont@@YAXPBDHH@Z
_TEXT	SEGMENT
_FontName$ = 8						; size = 4
_nWidth$ = 12						; size = 4
_nWeight$ = 16						; size = 4
?__CreateFont@@YAXPBDHH@Z PROC				; __CreateFont, COMDAT

; 5840 : {

	push	ebp
	mov	ebp, esp

; 5841 :     gFont = CreateFont(nWidth, 0,

	push	DWORD PTR _FontName$[ebp]
	push	2
	push	3
	push	0
	push	0
	push	0
	push	0
	push	0
	push	0
	push	DWORD PTR _nWeight$[ebp]
	push	0
	push	0
	push	0
	push	DWORD PTR _nWidth$[ebp]
	call	DWORD PTR __imp__CreateFontA@56
	mov	DWORD PTR ?gFont@@3PAUHFONT__@@A, eax	; gFont

; 5842 : 					    0, 0,
; 5843 : 					    nWeight,
; 5844 : 					    FALSE,
; 5845 : 					    FALSE,
; 5846 : 					    FALSE,
; 5847 : 					    ANSI_CHARSET,
; 5848 : 					    OUT_DEFAULT_PRECIS,
; 5849 : 					    CLIP_DEFAULT_PRECIS,
; 5850 : 					    NONANTIALIASED_QUALITY,
; 5851 : 					    VARIABLE_PITCH,
; 5852 :                         FontName);
; 5853 : }

	pop	ebp
	ret	0
?__CreateFont@@YAXPBDHH@Z ENDP				; __CreateFont
_TEXT	ENDS
; Function compile flags: /Ogtp
; File c:\users\administrator\desktop\김지훈 - 미러월드\1.src\dxwframe.cpp
;	COMDAT ?__DDCSetClipperList@@YAHPAUIDirectDrawSurface7@@PAUtagRECT@@H@Z
_TEXT	SEGMENT
_lpDDS$ = 8						; size = 4
_rcClipList$ = 12					; size = 4
_nCount$ = 16						; size = 4
?__DDCSetClipperList@@YAHPAUIDirectDrawSurface7@@PAUtagRECT@@H@Z PROC ; __DDCSetClipperList, COMDAT

; 5714 : {

	push	ebp
	mov	ebp, esp

; 5715 : 	LPRGNDATA pRd;
; 5716 : 	HRESULT ddrval;
; 5717 : 
; 5718 : 	if (!g_pDDClipper) 

	cmp	DWORD PTR ?g_pDDClipper@@3PAUIDirectDrawClipper@@A, 0 ; g_pDDClipper
	jne	SHORT $LN3@DDCSetClip

; 5719 : 	{
; 5720 :         ddrval = DirectDrawCreateClipper(0, &g_pDDClipper, NULL);		

	push	0
	push	OFFSET ?g_pDDClipper@@3PAUIDirectDrawClipper@@A ; g_pDDClipper
	push	0
	call	_DirectDrawCreateClipper@12

; 5721 : 		if (ddrval != DD_OK) return DDERRCHK(ddrval);

	test	eax, eax
	je	SHORT $LN3@DDCSetClip
	mov	DWORD PTR _nCount$[ebp], 5721		; 00001659H
	mov	DWORD PTR _rcClipList$[ebp], OFFSET ??_C@_0EE@LHDKHKAN@c?3?2users?2administrator?2desktop?2@
	mov	DWORD PTR _lpDDS$[ebp], eax

; 5743 : }

	pop	ebp

; 5721 : 		if (ddrval != DD_OK) return DDERRCHK(ddrval);

	jmp	?___DDError@@YAHJPADH@Z			; ___DDError
$LN3@DDCSetClip:
	push	esi

; 5722 : 	}
; 5723 : 
; 5724 : 	///// RGNDATA크기+ 버퍼크기 만큼 할당
; 5725 : 	pRd = (LPRGNDATA) malloc(sizeof(RGNDATAHEADER)+sizeof(RECT)*nCount);	

	mov	esi, DWORD PTR _nCount$[ebp]
	push	edi
	lea	eax, DWORD PTR [esi+2]
	shl	eax, 4
	push	eax
	call	_malloc
	add	esp, 4
	mov	edi, eax

; 5726 : 
; 5727 : 	/////
; 5728 : 	pRd->rdh.dwSize = sizeof(RGNDATAHEADER);	
; 5729 : 	pRd->rdh.iType = RDH_RECTANGLES;							    // 사각영역임을 의미
; 5730 : 	pRd->rdh.nCount = nCount;										// 1개의 영역데이터
; 5731 : 	pRd->rdh.nRgnSize = sizeof(RECT) * nCount;						// 버퍼데이터의 크기	
; 5732 : 	SetRect(&(pRd->rdh.rcBound), -8000, -8000, 8000, 8000);			// 바운더리 영역		

	push	8000					; 00001f40H
	push	8000					; 00001f40H
	push	-8000					; ffffe0c0H
	mov	DWORD PTR [edi+8], esi
	lea	eax, DWORD PTR [edi+16]
	push	-8000					; ffffe0c0H
	shl	esi, 4
	push	eax
	mov	DWORD PTR [edi], 32			; 00000020H
	mov	DWORD PTR [edi+4], 1
	mov	DWORD PTR [edi+12], esi
	call	DWORD PTR __imp__SetRect@20

; 5733 : 	memcpy(pRd->Buffer, rcClipList, sizeof(RECT)*nCount);			// 원하는 클립영역

	push	esi
	push	DWORD PTR _rcClipList$[ebp]
	lea	eax, DWORD PTR [edi+32]
	push	eax
	call	_memcpy

; 5734 : 
; 5735 : 	///// 클립리스트 설정
; 5736 : 	ddrval = g_pDDClipper->SetClipList(pRd, 0);

	mov	eax, DWORD PTR ?g_pDDClipper@@3PAUIDirectDrawClipper@@A ; g_pDDClipper
	add	esp, 12					; 0000000cH
	mov	ecx, DWORD PTR [eax]
	push	0
	push	edi
	push	eax
	call	DWORD PTR [ecx+28]

; 5737 : 	free(pRd);

	push	edi
	mov	esi, eax
	call	_free
	add	esp, 4

; 5738 :     if (ddrval != DD_OK) { return DDERRCHK(ddrval); }	

	test	esi, esi
	je	SHORT $LN4@DDCSetClip
	push	5738					; 0000166aH
	push	OFFSET ??_C@_0EE@LHDKHKAN@c?3?2users?2administrator?2desktop?2@
	push	esi
	call	?___DDError@@YAHJPADH@Z			; ___DDError
	add	esp, 12					; 0000000cH
	pop	edi
	pop	esi

; 5743 : }

	pop	ebp
	ret	0
$LN4@DDCSetClip:

; 5739 : 	ddrval = lpDDS->SetClipper(g_pDDClipper);

	mov	eax, DWORD PTR _lpDDS$[ebp]
	push	DWORD PTR ?g_pDDClipper@@3PAUIDirectDrawClipper@@A ; g_pDDClipper
	push	eax
	mov	ecx, DWORD PTR [eax]
	call	DWORD PTR [ecx+112]

; 5740 :     if (ddrval != DD_OK) { return DDERRCHK(ddrval); }

	test	eax, eax
	je	SHORT $LN5@DDCSetClip
	pop	edi
	pop	esi
	mov	DWORD PTR _nCount$[ebp], 5740		; 0000166cH
	mov	DWORD PTR _rcClipList$[ebp], OFFSET ??_C@_0EE@LHDKHKAN@c?3?2users?2administrator?2desktop?2@
	mov	DWORD PTR _lpDDS$[ebp], eax

; 5743 : }

	pop	ebp

; 5740 :     if (ddrval != DD_OK) { return DDERRCHK(ddrval); }

	jmp	?___DDError@@YAHJPADH@Z			; ___DDError
$LN5@DDCSetClip:
	pop	edi

; 5741 : 
; 5742 : 	return TRUE;

	mov	eax, 1
	pop	esi

; 5743 : }

	pop	ebp
	ret	0
?__DDCSetClipperList@@YAHPAUIDirectDrawSurface7@@PAUtagRECT@@H@Z ENDP ; __DDCSetClipperList
_TEXT	ENDS
; Function compile flags: /Ogtp
; File c:\users\administrator\desktop\김지훈 - 미러월드\1.src\dxwframe.cpp
;	COMDAT ?__DDCSetClipper@@YAHPAUIDirectDrawSurface7@@HHHH@Z
_TEXT	SEGMENT
_lpDDS$ = 8						; size = 4
_x1$ = 12						; size = 4
_y1$ = 16						; size = 4
_x2$ = 20						; size = 4
_y2$ = 24						; size = 4
?__DDCSetClipper@@YAHPAUIDirectDrawSurface7@@HHHH@Z PROC ; __DDCSetClipper, COMDAT

; 5681 : {

	push	ebp
	mov	ebp, esp

; 5682 : 	LPRGNDATA pRd;
; 5683 : 	HRESULT ddrval;
; 5684 : 
; 5685 : 	if (!g_pDDClipper) 

	cmp	DWORD PTR ?g_pDDClipper@@3PAUIDirectDrawClipper@@A, 0 ; g_pDDClipper
	jne	SHORT $LN3@DDCSetClip

; 5686 : 	{
; 5687 :         ddrval = DirectDrawCreateClipper(0, &g_pDDClipper, NULL);		

	push	0
	push	OFFSET ?g_pDDClipper@@3PAUIDirectDrawClipper@@A ; g_pDDClipper
	push	0
	call	_DirectDrawCreateClipper@12

; 5688 : 		if (ddrval != DD_OK) return DDERRCHK(ddrval);

	test	eax, eax
	je	SHORT $LN3@DDCSetClip
	push	5688					; 00001638H
	push	OFFSET ??_C@_0EE@LHDKHKAN@c?3?2users?2administrator?2desktop?2@
	push	eax
	call	?___DDError@@YAHJPADH@Z			; ___DDError
	add	esp, 12					; 0000000cH

; 5711 : }

	pop	ebp
	ret	0
$LN3@DDCSetClip:
	push	esi
	push	edi

; 5689 : 	}
; 5690 : 
; 5691 : 	///// RGNDATA크기+ 버퍼크기 만큼 할당
; 5692 : 	pRd = (LPRGNDATA) malloc(sizeof(RGNDATAHEADER)+sizeof(RECT));		

	push	48					; 00000030H
	call	_malloc

; 5693 : 	
; 5694 : 	/////
; 5695 : 	pRd->rdh.dwSize = sizeof(pRd->rdh);	
; 5696 : 	pRd->rdh.iType = RDH_RECTANGLES;							    // 사각영역임을 의미
; 5697 : 	pRd->rdh.nCount = 1;										    // 1개의 영역데이터
; 5698 : 	pRd->rdh.nRgnSize = sizeof(RECT);								// 버퍼데이터의 크기
; 5699 : 	SetRect(&(pRd->rdh.rcBound), -8000, -8000, 8000, 8000);		    // 바운더리 영역

	mov	esi, DWORD PTR __imp__SetRect@20
	add	esp, 4
	mov	edi, eax
	push	8000					; 00001f40H
	push	8000					; 00001f40H
	push	-8000					; ffffe0c0H
	push	-8000					; ffffe0c0H
	lea	ecx, DWORD PTR [edi+16]
	mov	DWORD PTR [edi], 32			; 00000020H
	push	ecx
	mov	DWORD PTR [edi+4], 1
	mov	DWORD PTR [edi+8], 1
	mov	DWORD PTR [edi+12], 16			; 00000010H
	call	esi

; 5700 : 	SetRect((RECT*)(pRd->Buffer), x1, y1, x2, y2);					// 원하는 클립영역	

	push	DWORD PTR _y2$[ebp]
	lea	eax, DWORD PTR [edi+32]
	push	DWORD PTR _x2$[ebp]
	push	DWORD PTR _y1$[ebp]
	push	DWORD PTR _x1$[ebp]
	push	eax
	call	esi

; 5701 : 
; 5702 : 	///// 클립리스트 설정
; 5703 : 	ddrval = g_pDDClipper->SetClipList(pRd, 0);

	mov	eax, DWORD PTR ?g_pDDClipper@@3PAUIDirectDrawClipper@@A ; g_pDDClipper
	push	0
	push	edi
	push	eax
	mov	ecx, DWORD PTR [eax]
	call	DWORD PTR [ecx+28]

; 5704 : 	free(pRd);

	push	edi
	mov	esi, eax
	call	_free
	add	esp, 4

; 5705 :     if (ddrval != DD_OK) { return DDERRCHK(ddrval); }

	test	esi, esi
	je	SHORT $LN4@DDCSetClip
	push	5705					; 00001649H
	push	OFFSET ??_C@_0EE@LHDKHKAN@c?3?2users?2administrator?2desktop?2@
	push	esi
	call	?___DDError@@YAHJPADH@Z			; ___DDError
	add	esp, 12					; 0000000cH
	pop	edi
	pop	esi

; 5711 : }

	pop	ebp
	ret	0
$LN4@DDCSetClip:

; 5706 : 	
; 5707 : 	ddrval = lpDDS->SetClipper(g_pDDClipper);

	mov	eax, DWORD PTR _lpDDS$[ebp]
	push	DWORD PTR ?g_pDDClipper@@3PAUIDirectDrawClipper@@A ; g_pDDClipper
	push	eax
	mov	ecx, DWORD PTR [eax]
	call	DWORD PTR [ecx+112]

; 5708 :     if (ddrval != DD_OK) { return DDERRCHK(ddrval); }

	test	eax, eax
	je	SHORT $LN5@DDCSetClip
	push	5708					; 0000164cH
	push	OFFSET ??_C@_0EE@LHDKHKAN@c?3?2users?2administrator?2desktop?2@
	push	eax
	call	?___DDError@@YAHJPADH@Z			; ___DDError
	add	esp, 12					; 0000000cH
	pop	edi
	pop	esi

; 5711 : }

	pop	ebp
	ret	0
$LN5@DDCSetClip:
	pop	edi

; 5709 : 
; 5710 : 	return TRUE;

	mov	eax, 1
	pop	esi

; 5711 : }

	pop	ebp
	ret	0
?__DDCSetClipper@@YAHPAUIDirectDrawSurface7@@HHHH@Z ENDP ; __DDCSetClipper
_TEXT	ENDS
; Function compile flags: /Ogtp
; File c:\users\administrator\desktop\김지훈 - 미러월드\1.src\dxwframe.cpp
;	COMDAT ?__DDCSetClipperWin@@YAHXZ
_TEXT	SEGMENT
?__DDCSetClipperWin@@YAHXZ PROC				; __DDCSetClipperWin, COMDAT

; 5660 : 	HRESULT ddrval;
; 5661 : 
; 5662 : 	//// 클립퍼객체 생성
; 5663 : 	if (!g_pDDClipper) 

	mov	ecx, DWORD PTR ?g_pDDClipper@@3PAUIDirectDrawClipper@@A ; g_pDDClipper
	test	ecx, ecx
	jne	SHORT $LN3@DDCSetClip

; 5664 : 	{
; 5665 :         ddrval = DirectDrawCreateClipper(0, &g_pDDClipper, NULL);		

	push	ecx
	push	OFFSET ?g_pDDClipper@@3PAUIDirectDrawClipper@@A ; g_pDDClipper
	push	ecx
	call	_DirectDrawCreateClipper@12

; 5666 : 		if (ddrval != DD_OK) return DDERRCHK(ddrval);

	test	eax, eax
	je	SHORT $LN7@DDCSetClip
	push	5666					; 00001622H
	push	OFFSET ??_C@_0EE@LHDKHKAN@c?3?2users?2administrator?2desktop?2@
	push	eax
	call	?___DDError@@YAHJPADH@Z			; ___DDError
	add	esp, 12					; 0000000cH

; 5678 : }

	ret	0
$LN7@DDCSetClip:

; 5666 : 		if (ddrval != DD_OK) return DDERRCHK(ddrval);

	mov	ecx, DWORD PTR ?g_pDDClipper@@3PAUIDirectDrawClipper@@A ; g_pDDClipper
$LN3@DDCSetClip:

; 5667 : 	}
; 5668 : 
; 5669 : 	//// 원도우 핸들에 클립퍼 객체를 적용, 첫번째인자는 0
; 5670 : 	ddrval = g_pDDClipper->SetHWnd(0, hWnd);

	push	DWORD PTR ?hWnd@@3PAUHWND__@@A		; hWnd
	mov	eax, DWORD PTR [ecx]
	push	0
	push	ecx
	call	DWORD PTR [eax+32]

; 5671 : 	if (ddrval != DD_OK) { return DDERRCHK(ddrval); }

	test	eax, eax
	je	SHORT $LN4@DDCSetClip
	push	5671					; 00001627H
	push	OFFSET ??_C@_0EE@LHDKHKAN@c?3?2users?2administrator?2desktop?2@
	push	eax
	call	?___DDError@@YAHJPADH@Z			; ___DDError
	add	esp, 12					; 0000000cH

; 5678 : }

	ret	0
$LN4@DDCSetClip:

; 5672 : 
; 5673 : 	//// 클립퍼객체를 1차표면에 적용
; 5674 : 	ddrval = g_pDDSPrimary->SetClipper(g_pDDClipper);

	mov	eax, DWORD PTR ?g_pDDSPrimary@@3PAUIDirectDrawSurface7@@A ; g_pDDSPrimary
	push	DWORD PTR ?g_pDDClipper@@3PAUIDirectDrawClipper@@A ; g_pDDClipper
	push	eax
	mov	ecx, DWORD PTR [eax]
	call	DWORD PTR [ecx+112]

; 5675 : 	if (ddrval != DD_OK) { return DDERRCHK(ddrval); }

	test	eax, eax
	je	SHORT $LN5@DDCSetClip
	push	5675					; 0000162bH
	push	OFFSET ??_C@_0EE@LHDKHKAN@c?3?2users?2administrator?2desktop?2@
	push	eax
	call	?___DDError@@YAHJPADH@Z			; ___DDError
	add	esp, 12					; 0000000cH

; 5678 : }

	ret	0
$LN5@DDCSetClip:

; 5676 : 
; 5677 : 	return TRUE;

	mov	eax, 1

; 5678 : }

	ret	0
?__DDCSetClipperWin@@YAHXZ ENDP				; __DDCSetClipperWin
_TEXT	ENDS
; Function compile flags: /Ogtp
; File c:\users\administrator\desktop\김지훈 - 미러월드\1.src\dxwframe.cpp
;	COMDAT ?__CreateSurface@@YAPAUIDirectDrawSurface7@@KKH@Z
_TEXT	SEGMENT
_lpDDS$ = -132						; size = 4
_ddsd$ = -128						; size = 124
__$ArrayPad$ = -4					; size = 4
_dwWidth$ = 8						; size = 4
_dwHeight$ = 12						; size = 4
_bIsVram$ = 16						; size = 4
?__CreateSurface@@YAPAUIDirectDrawSurface7@@KKH@Z PROC	; __CreateSurface, COMDAT

; 5745 : {

	push	ebp
	mov	ebp, esp
	sub	esp, 132				; 00000084H
	mov	eax, DWORD PTR ___security_cookie
	xor	eax, ebp
	mov	DWORD PTR __$ArrayPad$[ebp], eax

; 5746 : 	HRESULT ddrval;
; 5747 : 	DDSURFACEDESC2 ddsd;
; 5748 : 
; 5749 : 	///// 오프스크린을 생성
; 5750 : 	memset(&ddsd, 0, sizeof(ddsd));

	push	124					; 0000007cH
	lea	eax, DWORD PTR _ddsd$[ebp]
	push	0
	push	eax
	call	_memset
	add	esp, 12					; 0000000cH

; 5751 : 	ddsd.dwSize  = sizeof(ddsd);

	mov	DWORD PTR _ddsd$[ebp], 124		; 0000007cH

; 5752 : 	ddsd.dwFlags = DDSD_CAPS | DDSD_HEIGHT | DDSD_WIDTH;
; 5753 : 	if (bIsVram)

	cmp	DWORD PTR _bIsVram$[ebp], 0

; 5754 : 		ddsd.ddsCaps.dwCaps = DDSCAPS_OFFSCREENPLAIN|DDSCAPS_VIDEOMEMORY;
; 5755 : 	else
; 5756 : 		ddsd.ddsCaps.dwCaps = DDSCAPS_OFFSCREENPLAIN|DDSCAPS_SYSTEMMEMORY;
; 5757 : 
; 5758 : 	ddsd.dwHeight = dwHeight;
; 5759 : 	ddsd.dwWidth  = dwWidth;
; 5760 : 
; 5761 :     /////
; 5762 :     LPDIRECTDRAWSURFACE7 lpDDS = NULL;
; 5763 :     ddrval = g_pDD->CreateSurface(&ddsd, &lpDDS, NULL);

	lea	edx, DWORD PTR _lpDDS$[ebp]
	mov	ecx, 16448				; 00004040H
	mov	DWORD PTR _ddsd$[ebp+4], 7
	mov	eax, 2112				; 00000840H
	mov	DWORD PTR _lpDDS$[ebp], 0
	cmovne	eax, ecx
	mov	DWORD PTR _ddsd$[ebp+104], eax
	mov	eax, DWORD PTR _dwHeight$[ebp]
	mov	DWORD PTR _ddsd$[ebp+8], eax
	mov	eax, DWORD PTR _dwWidth$[ebp]
	mov	DWORD PTR _ddsd$[ebp+12], eax
	mov	eax, DWORD PTR ?g_pDD@@3PAUIDirectDraw7@@A ; g_pDD
	push	0
	push	edx
	lea	edx, DWORD PTR _ddsd$[ebp]
	mov	ecx, DWORD PTR [eax]
	push	edx
	push	eax
	call	DWORD PTR [ecx+24]

; 5764 :     if (ddrval == DDERR_OUTOFVIDEOMEMORY)

	cmp	eax, -2005532292			; 8876017cH
	jne	SHORT $LN4@CreateSurf

; 5765 :     {
; 5766 :         ddsd.ddsCaps.dwCaps = DDSCAPS_OFFSCREENPLAIN | DDSCAPS_SYSTEMMEMORY;
; 5767 :         ddrval = g_pDD->CreateSurface(&ddsd, &lpDDS, NULL);

	mov	eax, DWORD PTR ?g_pDD@@3PAUIDirectDraw7@@A ; g_pDD
	lea	edx, DWORD PTR _lpDDS$[ebp]
	push	0
	push	edx
	mov	DWORD PTR _ddsd$[ebp+104], 2112		; 00000840H
	lea	edx, DWORD PTR _ddsd$[ebp]
	mov	ecx, DWORD PTR [eax]
	push	edx
	push	eax
	call	DWORD PTR [ecx+24]
$LN4@CreateSurf:

; 5768 :     }
; 5769 :     if (ddrval != DD_OK) { DDERRCHK(ddrval); return NULL; }

	test	eax, eax
	je	SHORT $LN5@CreateSurf
	push	5769					; 00001689H
	push	OFFSET ??_C@_0EE@LHDKHKAN@c?3?2users?2administrator?2desktop?2@
	push	eax
	call	?___DDError@@YAHJPADH@Z			; ___DDError
	add	esp, 12					; 0000000cH
	xor	eax, eax

; 5770 : 
; 5771 :     return lpDDS;
; 5772 : }

	mov	ecx, DWORD PTR __$ArrayPad$[ebp]
	xor	ecx, ebp
	call	@__security_check_cookie@4
	mov	esp, ebp
	pop	ebp
	ret	0
$LN5@CreateSurf:
	mov	ecx, DWORD PTR __$ArrayPad$[ebp]
	mov	eax, DWORD PTR _lpDDS$[ebp]
	xor	ecx, ebp
	call	@__security_check_cookie@4
	mov	esp, ebp
	pop	ebp
	ret	0
?__CreateSurface@@YAPAUIDirectDrawSurface7@@KKH@Z ENDP	; __CreateSurface
_TEXT	ENDS
; Function compile flags: /Ogtp
; File c:\users\administrator\desktop\김지훈 - 미러월드\1.src\dxwframe.cpp
;	COMDAT ?__ReleaseAllObjects@@YAXXZ
_TEXT	SEGMENT
?__ReleaseAllObjects@@YAXXZ PROC			; __ReleaseAllObjects, COMDAT

; 5788 :     if (g_pDD != NULL)

	cmp	DWORD PTR ?g_pDD@@3PAUIDirectDraw7@@A, 0 ; g_pDD
	je	$LN2@ReleaseAll

; 5789 :     {
; 5790 : 		if (g_pDDSSBuffer2 != NULL)

	mov	ecx, DWORD PTR ?g_pDDSSBuffer2@@3PAUIDirectDrawSurface7@@A ; g_pDDSSBuffer2
	test	ecx, ecx
	je	SHORT $LN3@ReleaseAll

; 5791 : 		{
; 5792 : 			g_pDDSSBuffer2->Release();

	mov	eax, DWORD PTR [ecx]
	push	ecx
	call	DWORD PTR [eax+8]

; 5793 : 			g_pDDSSBuffer2 = NULL;

	mov	DWORD PTR ?g_pDDSSBuffer2@@3PAUIDirectDrawSurface7@@A, 0 ; g_pDDSSBuffer2
$LN3@ReleaseAll:

; 5794 : 		}		
; 5795 : 		if (g_pDDSSBuffer != NULL)

	mov	ecx, DWORD PTR ?g_pDDSSBuffer@@3PAUIDirectDrawSurface7@@A ; g_pDDSSBuffer
	test	ecx, ecx
	je	SHORT $LN4@ReleaseAll

; 5796 : 		{
; 5797 : 			g_pDDSSBuffer->Release();

	mov	eax, DWORD PTR [ecx]
	push	ecx
	call	DWORD PTR [eax+8]

; 5798 : 			g_pDDSSBuffer = NULL;

	mov	DWORD PTR ?g_pDDSSBuffer@@3PAUIDirectDrawSurface7@@A, 0 ; g_pDDSSBuffer
$LN4@ReleaseAll:

; 5799 : 		}		
; 5800 : 		if (g_pDDSVBuffer != NULL)

	mov	ecx, DWORD PTR ?g_pDDSVBuffer@@3PAUIDirectDrawSurface7@@A ; g_pDDSVBuffer
	test	ecx, ecx
	je	SHORT $LN5@ReleaseAll

; 5801 : 		{
; 5802 : 			g_pDDSVBuffer->Release();

	mov	eax, DWORD PTR [ecx]
	push	ecx
	call	DWORD PTR [eax+8]

; 5803 : 			g_pDDSVBuffer = NULL;

	mov	DWORD PTR ?g_pDDSVBuffer@@3PAUIDirectDrawSurface7@@A, 0 ; g_pDDSVBuffer
$LN5@ReleaseAll:

; 5804 : 		}
; 5805 :         if (g_pDDPal != NULL)

	mov	ecx, DWORD PTR ?g_pDDPal@@3PAUIDirectDrawPalette@@A ; g_pDDPal
	test	ecx, ecx
	je	SHORT $LN6@ReleaseAll

; 5806 :         {
; 5807 :             g_pDDPal->Release();

	mov	eax, DWORD PTR [ecx]
	push	ecx
	call	DWORD PTR [eax+8]

; 5808 :             g_pDDPal = NULL;

	mov	DWORD PTR ?g_pDDPal@@3PAUIDirectDrawPalette@@A, 0 ; g_pDDPal
$LN6@ReleaseAll:

; 5809 :         }
; 5810 : 
; 5811 :         if (g_pDDSOne != NULL)

	mov	ecx, DWORD PTR ?g_pDDSOne@@3PAUIDirectDrawSurface7@@A ; g_pDDSOne
	test	ecx, ecx
	je	SHORT $LN7@ReleaseAll

; 5812 :         {
; 5813 :             g_pDDSOne->Release();

	mov	eax, DWORD PTR [ecx]
	push	ecx
	call	DWORD PTR [eax+8]

; 5814 :             g_pDDSOne = NULL;

	mov	DWORD PTR ?g_pDDSOne@@3PAUIDirectDrawSurface7@@A, 0 ; g_pDDSOne
$LN7@ReleaseAll:

; 5815 :         }
; 5816 : 
; 5817 :         if (g_pDDSPrimary != NULL)

	mov	ecx, DWORD PTR ?g_pDDSPrimary@@3PAUIDirectDrawSurface7@@A ; g_pDDSPrimary
	test	ecx, ecx
	je	SHORT $LN8@ReleaseAll

; 5818 :         {
; 5819 :             g_pDDSPrimary->Release();

	mov	eax, DWORD PTR [ecx]
	push	ecx
	call	DWORD PTR [eax+8]

; 5820 :             g_pDDSPrimary = NULL;

	mov	DWORD PTR ?g_pDDSPrimary@@3PAUIDirectDrawSurface7@@A, 0 ; g_pDDSPrimary
$LN8@ReleaseAll:

; 5821 :         }
; 5822 :         g_pDD->Release();

	mov	eax, DWORD PTR ?g_pDD@@3PAUIDirectDraw7@@A ; g_pDD
	push	eax
	mov	ecx, DWORD PTR [eax]
	call	DWORD PTR [ecx+8]

; 5823 :         g_pDD = NULL;

	mov	DWORD PTR ?g_pDD@@3PAUIDirectDraw7@@A, 0 ; g_pDD
$LN2@ReleaseAll:

; 5824 :     }
; 5825 : }

	ret	0
?__ReleaseAllObjects@@YAXXZ ENDP			; __ReleaseAllObjects
_TEXT	ENDS
; Function compile flags: /Ogtp
; File c:\users\administrator\desktop\김지훈 - 미러월드\1.src\dxwframe.cpp
;	COMDAT ?__DDSWBlt@@YAJXZ
_TEXT	SEGMENT
_pt$ = -28						; size = 8
_rcDest$ = -20						; size = 16
__$ArrayPad$ = -4					; size = 4
?__DDSWBlt@@YAJXZ PROC					; __DDSWBlt, COMDAT

; 5775 : {

	push	ebp
	mov	ebp, esp
	sub	esp, 28					; 0000001cH
	mov	eax, DWORD PTR ___security_cookie
	xor	eax, ebp
	mov	DWORD PTR __$ArrayPad$[ebp], eax

; 5776 :     RECT  rcDest;
; 5777 : 	POINT pt = {0, 0};	
; 5778 : 
; 5779 : 	/////
; 5780 : 	::GetClientRect(hWnd, &rcDest);

	lea	eax, DWORD PTR _rcDest$[ebp]
	mov	DWORD PTR _pt$[ebp], 0
	push	eax
	push	DWORD PTR ?hWnd@@3PAUHWND__@@A		; hWnd
	mov	DWORD PTR _pt$[ebp+4], 0
	call	DWORD PTR __imp__GetClientRect@8

; 5781 : 	::ClientToScreen(hWnd, &pt);

	lea	eax, DWORD PTR _pt$[ebp]
	push	eax
	push	DWORD PTR ?hWnd@@3PAUHWND__@@A		; hWnd
	call	DWORD PTR __imp__ClientToScreen@8

; 5782 : 	::OffsetRect(&rcDest, pt.x, pt.y);

	push	DWORD PTR _pt$[ebp+4]
	lea	eax, DWORD PTR _rcDest$[ebp]
	push	DWORD PTR _pt$[ebp]
	push	eax
	call	DWORD PTR __imp__OffsetRect@12

; 5783 : 
; 5784 : 	return g_pDDSPrimary->Blt(&rcDest, g_pDDSBack, NULL, DDBLT_WAIT, NULL);

	mov	eax, DWORD PTR ?g_pDDSPrimary@@3PAUIDirectDrawSurface7@@A ; g_pDDSPrimary
	lea	edx, DWORD PTR _rcDest$[ebp]
	push	0
	push	16777216				; 01000000H
	push	0
	push	DWORD PTR ?g_pDDSBack@@3PAUIDirectDrawSurface7@@A ; g_pDDSBack
	mov	ecx, DWORD PTR [eax]
	push	edx
	push	eax
	call	DWORD PTR [ecx+20]

; 5785 : }

	mov	ecx, DWORD PTR __$ArrayPad$[ebp]
	xor	ecx, ebp
	call	@__security_check_cookie@4
	mov	esp, ebp
	pop	ebp
	ret	0
?__DDSWBlt@@YAJXZ ENDP					; __DDSWBlt
_TEXT	ENDS
; Function compile flags: /Ogtp
; File c:\users\administrator\desktop\김지훈 - 미러월드\1.src\dxwframe.cpp
;	COMDAT ?__DDInitWin@@YAHH@Z
_TEXT	SEGMENT
_lpDD$ = -132						; size = 4
_ddsd$ = -128						; size = 124
__$ArrayPad$ = -4					; size = 4
_bIsVRAM$ = 8						; size = 4
?__DDInitWin@@YAHH@Z PROC				; __DDInitWin, COMDAT

; 5612 : {

	push	ebp
	mov	ebp, esp
	sub	esp, 132				; 00000084H
	mov	eax, DWORD PTR ___security_cookie
	xor	eax, ebp
	mov	DWORD PTR __$ArrayPad$[ebp], eax
	push	esi

; 5613 : 	DDSURFACEDESC2 ddsd;
; 5614 : 	HRESULT        ddrval;
; 5615 : 
; 5616 :     /////
; 5617 :     HDC hdc = GetDC(hWnd);

	push	DWORD PTR ?hWnd@@3PAUHWND__@@A		; hWnd
	call	DWORD PTR __imp__GetDC@4
	mov	esi, eax

; 5618 :     int nBitPixel = GetDeviceCaps(hdc, BITSPIXEL);

	push	12					; 0000000cH
	push	esi
	call	DWORD PTR __imp__GetDeviceCaps@8

; 5619 :     ReleaseDC(hWnd, hdc);

	push	esi
	push	DWORD PTR ?hWnd@@3PAUHWND__@@A		; hWnd
	call	DWORD PTR __imp__ReleaseDC@8

; 5620 :     if (nBitPixel != nBitPixel)
; 5621 :     {
; 5622 :         TRACE0("윈도우모드 설정 실패 - 현재의 컬러모드와 실행모드가 다릅니다\n");
; 5623 :         return FALSE;
; 5624 :     }
; 5625 : 
; 5626 : 	///// 다이렉트 드로우 객체 생성 
; 5627 :   	LPDIRECTDRAW lpDD;
; 5628 : 	ddrval = DirectDrawCreate(NULL, &lpDD, NULL);

	push	0
	lea	eax, DWORD PTR _lpDD$[ebp]
	push	eax
	push	0
	call	_DirectDrawCreate@12
	pop	esi

; 5629 : 	if (ddrval != DD_OK) return DDERRCHK(ddrval);

	test	eax, eax
	je	SHORT $LN3@DDInitWin
	push	5629					; 000015fdH
	push	OFFSET ??_C@_0EE@LHDKHKAN@c?3?2users?2administrator?2desktop?2@
	push	eax
	call	?___DDError@@YAHJPADH@Z			; ___DDError

; 5649 : 
; 5650 : 	/////
; 5651 : 	TRACE0("WindowMode Init.\n");
; 5652 : 
; 5653 : 	gbIsFull = FALSE;
; 5654 : 
; 5655 : 	return TRUE;
; 5656 : }

	add	esp, 12					; 0000000cH
	mov	ecx, DWORD PTR __$ArrayPad$[ebp]
	xor	ecx, ebp
	call	@__security_check_cookie@4
	mov	esp, ebp
	pop	ebp
	ret	0
$LN3@DDInitWin:

; 5630 : 	ddrval = lpDD->QueryInterface(IID_IDirectDraw7, (LPVOID*)&g_pDD);

	mov	eax, DWORD PTR _lpDD$[ebp]
	push	OFFSET ?g_pDD@@3PAUIDirectDraw7@@A	; g_pDD
	push	OFFSET _IID_IDirectDraw7
	push	eax
	mov	ecx, DWORD PTR [eax]
	call	DWORD PTR [ecx]

; 5631 :     if (ddrval != DD_OK) return DDERRCHK(ddrval);

	test	eax, eax
	je	SHORT $LN4@DDInitWin
	push	5631					; 000015ffH
	push	OFFSET ??_C@_0EE@LHDKHKAN@c?3?2users?2administrator?2desktop?2@
	push	eax
	call	?___DDError@@YAHJPADH@Z			; ___DDError

; 5649 : 
; 5650 : 	/////
; 5651 : 	TRACE0("WindowMode Init.\n");
; 5652 : 
; 5653 : 	gbIsFull = FALSE;
; 5654 : 
; 5655 : 	return TRUE;
; 5656 : }

	add	esp, 12					; 0000000cH
	mov	ecx, DWORD PTR __$ArrayPad$[ebp]
	xor	ecx, ebp
	call	@__security_check_cookie@4
	mov	esp, ebp
	pop	ebp
	ret	0
$LN4@DDInitWin:

; 5632 : 	lpDD->Release();

	mov	eax, DWORD PTR _lpDD$[ebp]
	push	eax
	mov	ecx, DWORD PTR [eax]
	call	DWORD PTR [ecx+8]

; 5633 : 	
; 5634 : 	///// 윈도우모드로 설정
; 5635 : 	ddrval = g_pDD->SetCooperativeLevel(hWnd, DDSCL_NORMAL);

	mov	eax, DWORD PTR ?g_pDD@@3PAUIDirectDraw7@@A ; g_pDD
	push	8
	push	DWORD PTR ?hWnd@@3PAUHWND__@@A		; hWnd
	mov	ecx, DWORD PTR [eax]
	push	eax
	call	DWORD PTR [ecx+80]

; 5636 : 	if (ddrval != DD_OK) return DDERRCHK(ddrval);

	test	eax, eax
	je	SHORT $LN5@DDInitWin
	push	5636					; 00001604H
	push	OFFSET ??_C@_0EE@LHDKHKAN@c?3?2users?2administrator?2desktop?2@
	push	eax
	call	?___DDError@@YAHJPADH@Z			; ___DDError

; 5649 : 
; 5650 : 	/////
; 5651 : 	TRACE0("WindowMode Init.\n");
; 5652 : 
; 5653 : 	gbIsFull = FALSE;
; 5654 : 
; 5655 : 	return TRUE;
; 5656 : }

	add	esp, 12					; 0000000cH
	mov	ecx, DWORD PTR __$ArrayPad$[ebp]
	xor	ecx, ebp
	call	@__security_check_cookie@4
	mov	esp, ebp
	pop	ebp
	ret	0
$LN5@DDInitWin:

; 5637 :  
; 5638 : 	///// 1차표면을 생성
; 5639 : 	ZeroMemory(&ddsd, sizeof(ddsd));

	push	124					; 0000007cH
	lea	eax, DWORD PTR _ddsd$[ebp]
	push	0
	push	eax
	call	_memset

; 5640 : 	ddsd.dwSize            = sizeof(ddsd);
; 5641 : 	ddsd.dwFlags           = DDSD_CAPS;
; 5642 : 	ddsd.ddsCaps.dwCaps    = DDSCAPS_PRIMARYSURFACE;
; 5643 : 	
; 5644 :     ddrval = g_pDD->CreateSurface(&ddsd, &g_pDDSPrimary, NULL);    

	mov	eax, DWORD PTR ?g_pDD@@3PAUIDirectDraw7@@A ; g_pDD
	lea	edx, DWORD PTR _ddsd$[ebp]
	add	esp, 12					; 0000000cH
	mov	DWORD PTR _ddsd$[ebp], 124		; 0000007cH
	mov	DWORD PTR _ddsd$[ebp+4], 1
	mov	DWORD PTR _ddsd$[ebp+104], 512		; 00000200H
	mov	ecx, DWORD PTR [eax]
	push	0
	push	OFFSET ?g_pDDSPrimary@@3PAUIDirectDrawSurface7@@A ; g_pDDSPrimary
	push	edx
	push	eax
	call	DWORD PTR [ecx+24]

; 5645 : 	if (ddrval != DD_OK) return DDERRCHK(ddrval);

	test	eax, eax
	je	SHORT $LN6@DDInitWin
	push	5645					; 0000160dH
	push	OFFSET ??_C@_0EE@LHDKHKAN@c?3?2users?2administrator?2desktop?2@
	push	eax
	call	?___DDError@@YAHJPADH@Z			; ___DDError

; 5649 : 
; 5650 : 	/////
; 5651 : 	TRACE0("WindowMode Init.\n");
; 5652 : 
; 5653 : 	gbIsFull = FALSE;
; 5654 : 
; 5655 : 	return TRUE;
; 5656 : }

	add	esp, 12					; 0000000cH
	mov	ecx, DWORD PTR __$ArrayPad$[ebp]
	xor	ecx, ebp
	call	@__security_check_cookie@4
	mov	esp, ebp
	pop	ebp
	ret	0
$LN6@DDInitWin:

; 5646 : 
; 5647 : 	///// 2차표면
; 5648 : 	g_pDDSBack = __CreateSurface(HRES, VRES, bIsVRAM);

	push	DWORD PTR _bIsVRAM$[ebp]
	push	768					; 00000300H
	push	1024					; 00000400H
	call	?__CreateSurface@@YAPAUIDirectDrawSurface7@@KKH@Z ; __CreateSurface

; 5649 : 
; 5650 : 	/////
; 5651 : 	TRACE0("WindowMode Init.\n");
; 5652 : 
; 5653 : 	gbIsFull = FALSE;
; 5654 : 
; 5655 : 	return TRUE;
; 5656 : }

	mov	ecx, DWORD PTR __$ArrayPad$[ebp]
	add	esp, 12					; 0000000cH
	mov	DWORD PTR ?g_pDDSBack@@3PAUIDirectDrawSurface7@@A, eax ; g_pDDSBack
	xor	ecx, ebp
	mov	DWORD PTR ?gbIsFull@@3HA, 0		; gbIsFull
	mov	eax, 1
	call	@__security_check_cookie@4
	mov	esp, ebp
	pop	ebp
	ret	0
?__DDInitWin@@YAHH@Z ENDP				; __DDInitWin
_TEXT	ENDS
; Function compile flags: /Ogtp
; File c:\users\administrator\desktop\김지훈 - 미러월드\1.src\dxwframe.cpp
;	COMDAT ?__DDInit@@YAHXZ
_TEXT	SEGMENT
_ddsd$ = -160						; size = 124
_ddscaps$ = -32						; size = 16
__$ArrayPad$ = -4					; size = 4
?__DDInit@@YAHXZ PROC					; __DDInit, COMDAT

; 5567 : {

	push	ebx
	mov	ebx, esp
	sub	esp, 8
	and	esp, -16				; fffffff0H
	add	esp, 4
	push	ebp
	mov	ebp, DWORD PTR [ebx+4]
	mov	DWORD PTR [esp+4], ebp
	mov	ebp, esp
	sub	esp, 160				; 000000a0H
	mov	eax, DWORD PTR ___security_cookie
	xor	eax, ebp
	mov	DWORD PTR __$ArrayPad$[ebp], eax

; 5568 :     ///////////////////////////////////////////////////////////////////////////
; 5569 :     // Create the main DirectDraw object
; 5570 :     ///////////////////////////////////////////////////////////////////////////		
; 5571 :     DDSURFACEDESC2  ddsd;
; 5572 :     DDSCAPS2        ddscaps;
; 5573 : 	HRESULT			hRet;
; 5574 : 
; 5575 :     hRet = DirectDrawCreateEx(NULL, (VOID**)&g_pDD, IID_IDirectDraw7, NULL);

	push	0
	push	OFFSET _IID_IDirectDraw7
	push	OFFSET ?g_pDD@@3PAUIDirectDraw7@@A	; g_pDD
	push	0
	call	_DirectDrawCreateEx@16

; 5576 :     if (hRet != DD_OK) return DDERRCHK(hRet);

	test	eax, eax
	je	SHORT $LN2@DDInit
	push	5576					; 000015c8H
	push	OFFSET ??_C@_0EE@LHDKHKAN@c?3?2users?2administrator?2desktop?2@
	push	eax
	call	?___DDError@@YAHJPADH@Z			; ___DDError
	add	esp, 12					; 0000000cH

; 5602 : 
; 5603 : 	/////
; 5604 : 	TRACE0("FullMode Init.\n");
; 5605 : 
; 5606 : 	gbIsFull = TRUE;
; 5607 : 
; 5608 : 	return TRUE;
; 5609 : }

	mov	ecx, DWORD PTR __$ArrayPad$[ebp]
	xor	ecx, ebp
	call	@__security_check_cookie@4
	mov	esp, ebp
	pop	ebp
	mov	esp, ebx
	pop	ebx
	ret	0
$LN2@DDInit:

; 5577 : 	
; 5578 :     // Get exclusive mode
; 5579 :     hRet = g_pDD->SetCooperativeLevel(hWnd, DDSCL_EXCLUSIVE | DDSCL_FULLSCREEN);

	mov	eax, DWORD PTR ?g_pDD@@3PAUIDirectDraw7@@A ; g_pDD
	push	17					; 00000011H
	push	DWORD PTR ?hWnd@@3PAUHWND__@@A		; hWnd
	mov	ecx, DWORD PTR [eax]
	push	eax
	call	DWORD PTR [ecx+80]

; 5580 :     if (hRet != DD_OK) return DDERRCHK(hRet);        

	test	eax, eax
	je	SHORT $LN3@DDInit
	push	5580					; 000015ccH
	push	OFFSET ??_C@_0EE@LHDKHKAN@c?3?2users?2administrator?2desktop?2@
	push	eax
	call	?___DDError@@YAHJPADH@Z			; ___DDError
	add	esp, 12					; 0000000cH

; 5602 : 
; 5603 : 	/////
; 5604 : 	TRACE0("FullMode Init.\n");
; 5605 : 
; 5606 : 	gbIsFull = TRUE;
; 5607 : 
; 5608 : 	return TRUE;
; 5609 : }

	mov	ecx, DWORD PTR __$ArrayPad$[ebp]
	xor	ecx, ebp
	call	@__security_check_cookie@4
	mov	esp, ebp
	pop	ebp
	mov	esp, ebx
	pop	ebx
	ret	0
$LN3@DDInit:

; 5581 : 
; 5582 :     // Set the video mode 
; 5583 :     hRet = g_pDD->SetDisplayMode(HRES, VRES, BPP, REF, 0);

	mov	eax, DWORD PTR ?g_pDD@@3PAUIDirectDraw7@@A ; g_pDD
	push	0
	push	0
	push	16					; 00000010H
	mov	ecx, DWORD PTR [eax]
	push	768					; 00000300H
	push	1024					; 00000400H
	push	eax
	call	DWORD PTR [ecx+84]

; 5584 :     if (hRet != DD_OK) return DDERRCHK(hRet);        

	test	eax, eax
	je	SHORT $LN4@DDInit
	push	5584					; 000015d0H
	push	OFFSET ??_C@_0EE@LHDKHKAN@c?3?2users?2administrator?2desktop?2@
	push	eax
	call	?___DDError@@YAHJPADH@Z			; ___DDError
	add	esp, 12					; 0000000cH

; 5602 : 
; 5603 : 	/////
; 5604 : 	TRACE0("FullMode Init.\n");
; 5605 : 
; 5606 : 	gbIsFull = TRUE;
; 5607 : 
; 5608 : 	return TRUE;
; 5609 : }

	mov	ecx, DWORD PTR __$ArrayPad$[ebp]
	xor	ecx, ebp
	call	@__security_check_cookie@4
	mov	esp, ebp
	pop	ebp
	mov	esp, ebx
	pop	ebx
	ret	0
$LN4@DDInit:

; 5585 : 
; 5586 :     // Create the primary surface with 1 back buffer
; 5587 :     ZeroMemory(&ddsd, sizeof(ddsd));

	push	124					; 0000007cH
	lea	eax, DWORD PTR _ddsd$[ebp]
	push	0
	push	eax
	call	_memset

; 5588 :     ddsd.dwSize = sizeof(ddsd);
; 5589 :     ddsd.dwFlags = DDSD_CAPS | DDSD_BACKBUFFERCOUNT;
; 5590 :     ddsd.ddsCaps.dwCaps = DDSCAPS_PRIMARYSURFACE |
; 5591 :                           DDSCAPS_FLIP |
; 5592 :                           DDSCAPS_COMPLEX;
; 5593 :     ddsd.dwBackBufferCount = BBC;
; 5594 :     hRet = g_pDD->CreateSurface(&ddsd, &g_pDDSPrimary, NULL);

	mov	eax, DWORD PTR ?g_pDD@@3PAUIDirectDraw7@@A ; g_pDD
	lea	edx, DWORD PTR _ddsd$[ebp]
	add	esp, 12					; 0000000cH
	mov	DWORD PTR _ddsd$[ebp], 124		; 0000007cH
	mov	DWORD PTR _ddsd$[ebp+4], 33		; 00000021H
	mov	DWORD PTR _ddsd$[ebp+104], 536		; 00000218H
	mov	DWORD PTR _ddsd$[ebp+20], 1
	mov	ecx, DWORD PTR [eax]
	push	0
	push	OFFSET ?g_pDDSPrimary@@3PAUIDirectDrawSurface7@@A ; g_pDDSPrimary
	push	edx
	push	eax
	call	DWORD PTR [ecx+24]

; 5595 :     if (hRet != DD_OK) return DDERRCHK(hRet);        

	test	eax, eax
	je	SHORT $LN5@DDInit
	push	5595					; 000015dbH
	push	OFFSET ??_C@_0EE@LHDKHKAN@c?3?2users?2administrator?2desktop?2@
	push	eax
	call	?___DDError@@YAHJPADH@Z			; ___DDError
	add	esp, 12					; 0000000cH

; 5602 : 
; 5603 : 	/////
; 5604 : 	TRACE0("FullMode Init.\n");
; 5605 : 
; 5606 : 	gbIsFull = TRUE;
; 5607 : 
; 5608 : 	return TRUE;
; 5609 : }

	mov	ecx, DWORD PTR __$ArrayPad$[ebp]
	xor	ecx, ebp
	call	@__security_check_cookie@4
	mov	esp, ebp
	pop	ebp
	mov	esp, ebx
	pop	ebx
	ret	0
$LN5@DDInit:

; 5596 : 
; 5597 :     // Get a pointer to the back buffer
; 5598 :     ZeroMemory(&ddscaps, sizeof(ddscaps));
; 5599 :     ddscaps.dwCaps = DDSCAPS_BACKBUFFER;
; 5600 :     hRet = g_pDDSPrimary->GetAttachedSurface(&ddscaps, &g_pDDSBack);

	mov	eax, DWORD PTR ?g_pDDSPrimary@@3PAUIDirectDrawSurface7@@A ; g_pDDSPrimary
	lea	edx, DWORD PTR _ddscaps$[ebp]
	xorps	xmm0, xmm0
	movaps	XMMWORD PTR _ddscaps$[ebp], xmm0
	push	OFFSET ?g_pDDSBack@@3PAUIDirectDrawSurface7@@A ; g_pDDSBack
	mov	DWORD PTR _ddscaps$[ebp], 4
	mov	ecx, DWORD PTR [eax]
	push	edx
	push	eax
	call	DWORD PTR [ecx+48]

; 5601 :     if (hRet != DD_OK) return DDERRCHK(hRet);

	test	eax, eax
	je	SHORT $LN6@DDInit
	push	5601					; 000015e1H
	push	OFFSET ??_C@_0EE@LHDKHKAN@c?3?2users?2administrator?2desktop?2@
	push	eax
	call	?___DDError@@YAHJPADH@Z			; ___DDError
	add	esp, 12					; 0000000cH

; 5602 : 
; 5603 : 	/////
; 5604 : 	TRACE0("FullMode Init.\n");
; 5605 : 
; 5606 : 	gbIsFull = TRUE;
; 5607 : 
; 5608 : 	return TRUE;
; 5609 : }

	mov	ecx, DWORD PTR __$ArrayPad$[ebp]
	xor	ecx, ebp
	call	@__security_check_cookie@4
	mov	esp, ebp
	pop	ebp
	mov	esp, ebx
	pop	ebx
	ret	0
$LN6@DDInit:
	mov	ecx, DWORD PTR __$ArrayPad$[ebp]
	mov	eax, 1
	xor	ecx, ebp
	mov	DWORD PTR ?gbIsFull@@3HA, 1		; gbIsFull
	call	@__security_check_cookie@4
	mov	esp, ebp
	pop	ebp
	mov	esp, ebx
	pop	ebx
	ret	0
?__DDInit@@YAHXZ ENDP					; __DDInit
_TEXT	ENDS
; Function compile flags: /Ogtp
; File c:\users\administrator\desktop\김지훈 - 미러월드\1.src\dxwframe.cpp
;	COMDAT ?__WinDestroy@@YAXXZ
_TEXT	SEGMENT
?__WinDestroy@@YAXXZ PROC				; __WinDestroy, COMDAT

; 463  : 	//// 디버그 모드를 위한 비트픽셀 복구
; 464  : 
; 465  : 	////
; 466  : 	DXW_ReleaseWinMode();
; 467  : 	
; 468  : 	////
; 469  : 	__DestroyFont();

	call	?__DestroyFont@@YAXXZ			; __DestroyFont

; 470  : 
; 471  : 	//// DX 오브젝트 해제
; 472  : 	__ReleaseAllObjects();

	jmp	?__ReleaseAllObjects@@YAXXZ		; __ReleaseAllObjects
?__WinDestroy@@YAXXZ ENDP				; __WinDestroy
_TEXT	ENDS
; Function compile flags: /Ogtp
; File c:\users\administrator\desktop\김지훈 - 미러월드\1.src\dxwframe.cpp
;	COMDAT ?__WinKeyDown@@YAXPAUHWND__@@I@Z
_TEXT	SEGMENT
_hwnd$ = 8						; size = 4
_wParam$ = 12						; size = 4
?__WinKeyDown@@YAXPAUHWND__@@I@Z PROC			; __WinKeyDown, COMDAT

; 398  : {

	push	ebp
	mov	ebp, esp

; 399  :     static BOOL bIsFpsMax = FALSE;
; 400  : 
; 401  : 	switch( wParam )

	mov	eax, DWORD PTR _wParam$[ebp]
	add	eax, -27				; ffffffe5H
	cmp	eax, 94					; 0000005eH
	ja	$LN23@WinKeyDown
	movzx	eax, BYTE PTR $LN25@WinKeyDown[eax]
	jmp	DWORD PTR $LN33@WinKeyDown[eax*4]
$LN4@WinKeyDown:

; 402  : 	{
; 403  : 	case VK_ESCAPE:
; 404  : 		PostMessage(hwnd, WM_CLOSE, 0, 0);

	push	0
	push	0
	push	16					; 00000010H
	push	DWORD PTR _hwnd$[ebp]
	call	DWORD PTR __imp__PostMessageA@16

; 437  : 
; 438  :     case VK_TAB :
; 439  :         break;
; 440  : 
; 441  :     case VK_BACK :
; 442  :         break;
; 443  : 
; 444  :     case VK_END : 
; 445  :         break;
; 446  : 
; 447  :     case VK_HOME :
; 448  :         break;
; 449  : 
; 450  :     case VK_DELETE :
; 451  :         break;
; 452  : 
; 453  : 	case VK_SPACE :
; 454  : 		break;
; 455  : 
; 456  :     case VK_RETURN:
; 457  : 		break;
; 458  : 	}
; 459  : }

	pop	ebp
	ret	0
$LN5@WinKeyDown:

; 405  : 		break;
; 406  : 
; 407  : 	case VK_F1:
; 408  : 		Skillcheat += 100;

	add	DWORD PTR ?Skillcheat@@3HA, 100		; Skillcheat, 00000064H

; 437  : 
; 438  :     case VK_TAB :
; 439  :         break;
; 440  : 
; 441  :     case VK_BACK :
; 442  :         break;
; 443  : 
; 444  :     case VK_END : 
; 445  :         break;
; 446  : 
; 447  :     case VK_HOME :
; 448  :         break;
; 449  : 
; 450  :     case VK_DELETE :
; 451  :         break;
; 452  : 
; 453  : 	case VK_SPACE :
; 454  : 		break;
; 455  : 
; 456  :     case VK_RETURN:
; 457  : 		break;
; 458  : 	}
; 459  : }

	pop	ebp
	ret	0
$LN6@WinKeyDown:

; 409  : 		break;
; 410  : 	case VK_F2:
; 411  : 		Skillcheat -= 100;

	sub	DWORD PTR ?Skillcheat@@3HA, 100		; Skillcheat, 00000064H

; 437  : 
; 438  :     case VK_TAB :
; 439  :         break;
; 440  : 
; 441  :     case VK_BACK :
; 442  :         break;
; 443  : 
; 444  :     case VK_END : 
; 445  :         break;
; 446  : 
; 447  :     case VK_HOME :
; 448  :         break;
; 449  : 
; 450  :     case VK_DELETE :
; 451  :         break;
; 452  : 
; 453  : 	case VK_SPACE :
; 454  : 		break;
; 455  : 
; 456  :     case VK_RETURN:
; 457  : 		break;
; 458  : 	}
; 459  : }

	pop	ebp
	ret	0
$LN8@WinKeyDown:

; 412  : 		break;
; 413  : 	case VK_F3:
; 414  : 		
; 415  : 		break;
; 416  : 
; 417  :     case VK_F4:	
; 418  : 		g_nPhaze = 4;

	mov	DWORD PTR ?g_nPhaze@@3HA, 4		; g_nPhaze

; 437  : 
; 438  :     case VK_TAB :
; 439  :         break;
; 440  : 
; 441  :     case VK_BACK :
; 442  :         break;
; 443  : 
; 444  :     case VK_END : 
; 445  :         break;
; 446  : 
; 447  :     case VK_HOME :
; 448  :         break;
; 449  : 
; 450  :     case VK_DELETE :
; 451  :         break;
; 452  : 
; 453  : 	case VK_SPACE :
; 454  : 		break;
; 455  : 
; 456  :     case VK_RETURN:
; 457  : 		break;
; 458  : 	}
; 459  : }

	pop	ebp
	ret	0
$LN9@WinKeyDown:

; 419  :         break;
; 420  : 
; 421  :     case VK_F5: __FxFadeTo(g_pDDSPrimary, g_pDDSBack, rand() % 32, rand() % 64, rand() % 32); break;

	call	_rand
	call	_rand

; 437  : 
; 438  :     case VK_TAB :
; 439  :         break;
; 440  : 
; 441  :     case VK_BACK :
; 442  :         break;
; 443  : 
; 444  :     case VK_END : 
; 445  :         break;
; 446  : 
; 447  :     case VK_HOME :
; 448  :         break;
; 449  : 
; 450  :     case VK_DELETE :
; 451  :         break;
; 452  : 
; 453  : 	case VK_SPACE :
; 454  : 		break;
; 455  : 
; 456  :     case VK_RETURN:
; 457  : 		break;
; 458  : 	}
; 459  : }

	pop	ebp

; 419  :         break;
; 420  : 
; 421  :     case VK_F5: __FxFadeTo(g_pDDSPrimary, g_pDDSBack, rand() % 32, rand() % 64, rand() % 32); break;

	jmp	_rand
$LN10@WinKeyDown:

; 422  : 	case VK_F6: g_bGrayScale = !g_bGrayScale; break;		

	xor	eax, eax
	cmp	DWORD PTR ?g_bGrayScale@@3HA, eax	; g_bGrayScale
	sete	al
	mov	DWORD PTR ?g_bGrayScale@@3HA, eax	; g_bGrayScale

; 437  : 
; 438  :     case VK_TAB :
; 439  :         break;
; 440  : 
; 441  :     case VK_BACK :
; 442  :         break;
; 443  : 
; 444  :     case VK_END : 
; 445  :         break;
; 446  : 
; 447  :     case VK_HOME :
; 448  :         break;
; 449  : 
; 450  :     case VK_DELETE :
; 451  :         break;
; 452  : 
; 453  : 	case VK_SPACE :
; 454  : 		break;
; 455  : 
; 456  :     case VK_RETURN:
; 457  : 		break;
; 458  : 	}
; 459  : }

	pop	ebp
	ret	0
$LN11@WinKeyDown:

; 423  : 	case VK_F7: g_bColorize = !g_bColorize;

	xor	eax, eax
	cmp	DWORD PTR ?g_bColorize@@3HA, eax	; g_bColorize
	sete	al
	mov	DWORD PTR ?g_bColorize@@3HA, eax	; g_bColorize

; 424  : 				g_dwR = rand() % 32;

	call	_rand
	and	eax, -2147483617			; 8000001fH
	jns	SHORT $LN27@WinKeyDown
	dec	eax
	or	eax, -32				; ffffffe0H
	inc	eax
$LN27@WinKeyDown:
	mov	DWORD PTR ?g_dwR@@3KA, eax		; g_dwR

; 425  : 				g_dwG = rand() % 64;

	call	_rand
	and	eax, -2147483585			; 8000003fH
	jns	SHORT $LN28@WinKeyDown
	dec	eax
	or	eax, -64				; ffffffc0H
	inc	eax
$LN28@WinKeyDown:
	mov	DWORD PTR ?g_dwG@@3KA, eax		; g_dwG

; 426  : 				g_dwB = rand() % 32;

	call	_rand
	and	eax, -2147483617			; 8000001fH
	jns	SHORT $LN29@WinKeyDown
	dec	eax
	or	eax, -32				; ffffffe0H
	inc	eax
$LN29@WinKeyDown:
	mov	DWORD PTR ?g_dwB@@3KA, eax		; g_dwB

; 437  : 
; 438  :     case VK_TAB :
; 439  :         break;
; 440  : 
; 441  :     case VK_BACK :
; 442  :         break;
; 443  : 
; 444  :     case VK_END : 
; 445  :         break;
; 446  : 
; 447  :     case VK_HOME :
; 448  :         break;
; 449  : 
; 450  :     case VK_DELETE :
; 451  :         break;
; 452  : 
; 453  : 	case VK_SPACE :
; 454  : 		break;
; 455  : 
; 456  :     case VK_RETURN:
; 457  : 		break;
; 458  : 	}
; 459  : }

	pop	ebp
	ret	0
$LN12@WinKeyDown:

; 427  : 				break;		
; 428  : 	case VK_F8: gbIsGod = !gbIsGod; break;		

	xor	eax, eax
	cmp	DWORD PTR ?gbIsGod@@3HA, eax		; gbIsGod
	sete	al
	mov	DWORD PTR ?gbIsGod@@3HA, eax		; gbIsGod

; 437  : 
; 438  :     case VK_TAB :
; 439  :         break;
; 440  : 
; 441  :     case VK_BACK :
; 442  :         break;
; 443  : 
; 444  :     case VK_END : 
; 445  :         break;
; 446  : 
; 447  :     case VK_HOME :
; 448  :         break;
; 449  : 
; 450  :     case VK_DELETE :
; 451  :         break;
; 452  : 
; 453  : 	case VK_SPACE :
; 454  : 		break;
; 455  : 
; 456  :     case VK_RETURN:
; 457  : 		break;
; 458  : 	}
; 459  : }

	pop	ebp
	ret	0
$LN13@WinKeyDown:

; 429  :     case VK_F9: 
; 430  : 		bIsFpsMax = !bIsFpsMax;

	xor	ecx, ecx

; 431  : 		if (bIsFpsMax) 
; 432  : 			gFpsMng.SetFPS(0);
; 433  : 		else 
; 434  : 			gFpsMng.SetFPS(_FPS);
; 435  :         break;

	mov	edx, 60					; 0000003cH
	cmp	DWORD PTR ?bIsFpsMax@?1??__WinKeyDown@@YAXPAUHWND__@@I@Z@4HA, ecx
	sete	cl
	xor	eax, eax
	test	ecx, ecx
	mov	DWORD PTR ?bIsFpsMax@?1??__WinKeyDown@@YAXPAUHWND__@@I@Z@4HA, ecx

; 437  : 
; 438  :     case VK_TAB :
; 439  :         break;
; 440  : 
; 441  :     case VK_BACK :
; 442  :         break;
; 443  : 
; 444  :     case VK_END : 
; 445  :         break;
; 446  : 
; 447  :     case VK_HOME :
; 448  :         break;
; 449  : 
; 450  :     case VK_DELETE :
; 451  :         break;
; 452  : 
; 453  : 	case VK_SPACE :
; 454  : 		break;
; 455  : 
; 456  :     case VK_RETURN:
; 457  : 		break;
; 458  : 	}
; 459  : }

	mov	ecx, OFFSET ?gFpsMng@@3VCFpsMng@@A	; gFpsMng
	cmove	eax, edx
	push	eax
	call	?SetFPS@CFpsMng@@QAEXK@Z		; CFpsMng::SetFPS
	pop	ebp
	ret	0
$LN16@WinKeyDown:

; 436  : 	case VK_F10: gFpsMng.SetFPS(30); break;

	push	30					; 0000001eH

; 437  : 
; 438  :     case VK_TAB :
; 439  :         break;
; 440  : 
; 441  :     case VK_BACK :
; 442  :         break;
; 443  : 
; 444  :     case VK_END : 
; 445  :         break;
; 446  : 
; 447  :     case VK_HOME :
; 448  :         break;
; 449  : 
; 450  :     case VK_DELETE :
; 451  :         break;
; 452  : 
; 453  : 	case VK_SPACE :
; 454  : 		break;
; 455  : 
; 456  :     case VK_RETURN:
; 457  : 		break;
; 458  : 	}
; 459  : }

	mov	ecx, OFFSET ?gFpsMng@@3VCFpsMng@@A	; gFpsMng
	call	?SetFPS@CFpsMng@@QAEXK@Z		; CFpsMng::SetFPS
$LN23@WinKeyDown:
	pop	ebp
	ret	0
	npad	1
$LN33@WinKeyDown:
	DD	$LN4@WinKeyDown
	DD	$LN5@WinKeyDown
	DD	$LN6@WinKeyDown
	DD	$LN8@WinKeyDown
	DD	$LN9@WinKeyDown
	DD	$LN10@WinKeyDown
	DD	$LN11@WinKeyDown
	DD	$LN12@WinKeyDown
	DD	$LN13@WinKeyDown
	DD	$LN16@WinKeyDown
	DD	$LN23@WinKeyDown
$LN25@WinKeyDown:
	DB	0
	DB	10					; 0000000aH
	DB	10					; 0000000aH
	DB	10					; 0000000aH
	DB	10					; 0000000aH
	DB	10					; 0000000aH
	DB	10					; 0000000aH
	DB	10					; 0000000aH
	DB	10					; 0000000aH
	DB	10					; 0000000aH
	DB	10					; 0000000aH
	DB	10					; 0000000aH
	DB	10					; 0000000aH
	DB	10					; 0000000aH
	DB	10					; 0000000aH
	DB	10					; 0000000aH
	DB	10					; 0000000aH
	DB	10					; 0000000aH
	DB	10					; 0000000aH
	DB	10					; 0000000aH
	DB	10					; 0000000aH
	DB	10					; 0000000aH
	DB	10					; 0000000aH
	DB	10					; 0000000aH
	DB	10					; 0000000aH
	DB	10					; 0000000aH
	DB	10					; 0000000aH
	DB	10					; 0000000aH
	DB	10					; 0000000aH
	DB	10					; 0000000aH
	DB	10					; 0000000aH
	DB	10					; 0000000aH
	DB	10					; 0000000aH
	DB	10					; 0000000aH
	DB	10					; 0000000aH
	DB	10					; 0000000aH
	DB	10					; 0000000aH
	DB	10					; 0000000aH
	DB	10					; 0000000aH
	DB	10					; 0000000aH
	DB	10					; 0000000aH
	DB	10					; 0000000aH
	DB	10					; 0000000aH
	DB	10					; 0000000aH
	DB	10					; 0000000aH
	DB	10					; 0000000aH
	DB	10					; 0000000aH
	DB	10					; 0000000aH
	DB	10					; 0000000aH
	DB	10					; 0000000aH
	DB	10					; 0000000aH
	DB	10					; 0000000aH
	DB	10					; 0000000aH
	DB	10					; 0000000aH
	DB	10					; 0000000aH
	DB	10					; 0000000aH
	DB	10					; 0000000aH
	DB	10					; 0000000aH
	DB	10					; 0000000aH
	DB	10					; 0000000aH
	DB	10					; 0000000aH
	DB	10					; 0000000aH
	DB	10					; 0000000aH
	DB	10					; 0000000aH
	DB	10					; 0000000aH
	DB	10					; 0000000aH
	DB	10					; 0000000aH
	DB	10					; 0000000aH
	DB	10					; 0000000aH
	DB	10					; 0000000aH
	DB	10					; 0000000aH
	DB	10					; 0000000aH
	DB	10					; 0000000aH
	DB	10					; 0000000aH
	DB	10					; 0000000aH
	DB	10					; 0000000aH
	DB	10					; 0000000aH
	DB	10					; 0000000aH
	DB	10					; 0000000aH
	DB	10					; 0000000aH
	DB	10					; 0000000aH
	DB	10					; 0000000aH
	DB	10					; 0000000aH
	DB	10					; 0000000aH
	DB	10					; 0000000aH
	DB	1
	DB	2
	DB	10					; 0000000aH
	DB	3
	DB	4
	DB	5
	DB	6
	DB	7
	DB	8
	DB	9
?__WinKeyDown@@YAXPAUHWND__@@I@Z ENDP			; __WinKeyDown
_TEXT	ENDS
; Function compile flags: /Ogtp
; File c:\users\administrator\desktop\김지훈 - 미러월드\1.src\dxwframe.cpp
;	COMDAT ?__WndProc@@YGJPAUHWND__@@IIJ@Z
_TEXT	SEGMENT
_hwnd$ = 8						; size = 4
_message$ = 12						; size = 4
_wParam$ = 16						; size = 4
_lParam$ = 20						; size = 4
?__WndProc@@YGJPAUHWND__@@IIJ@Z PROC			; __WndProc, COMDAT

; 364  : {

	push	ebp
	mov	ebp, esp
	push	esi

; 365  :     switch( message )

	mov	esi, DWORD PTR _wParam$[ebp]
	push	edi
	mov	edi, DWORD PTR _message$[ebp]
	cmp	edi, 32					; 00000020H
	ja	SHORT $LN17@WndProc
	je	SHORT $LN14@WndProc
	mov	eax, edi
	sub	eax, 2
	je	SHORT $LN13@WndProc
	sub	eax, 26					; 0000001aH
	jne	$LN15@WndProc

; 390  : 		}		
; 391  : 		break;
; 392  : 	}
; 393  : 
; 394  :     return DefWindowProc(hwnd, message, wParam, lParam);

	push	DWORD PTR _lParam$[ebp]
	mov	DWORD PTR ?gAppSet@@3UtagAPP_SET@@A+4, esi
	push	esi
	push	edi
	push	DWORD PTR _hwnd$[ebp]
	call	DWORD PTR __imp__DefWindowProcA@16
	pop	edi

; 395  : }

	pop	esi
	pop	ebp
	ret	16					; 00000010H
$LN13@WndProc:

; 371  : 		{
; 372  : 			gAppSet.bIsPause = !gAppSet.bIsPause;			
; 373  : 			break;
; 374  : 		}
; 375  : 		break;
; 376  :     case WM_ACTIVATEAPP : gAppSet.bIsActive = wParam;         break;
; 377  : 	case WM_MOUSEMOVE :
; 378  : 		//g_MousePos = MAKEPOINTS(lParam);
; 379  : 		break;
; 380  : 	case WM_QUERYNEWPALETTE: break;	
; 381  :     case WM_DESTROY:
; 382  :         __WinDestroy();

	call	?__WinDestroy@@YAXXZ			; __WinDestroy

; 383  : 		PostQuitMessage(0);						

	push	0
	call	DWORD PTR __imp__PostQuitMessage@4

; 390  : 		}		
; 391  : 		break;
; 392  : 	}
; 393  : 
; 394  :     return DefWindowProc(hwnd, message, wParam, lParam);

	push	DWORD PTR _lParam$[ebp]
	push	esi
	push	edi
	push	DWORD PTR _hwnd$[ebp]
	call	DWORD PTR __imp__DefWindowProcA@16
	pop	edi

; 395  : }

	pop	esi
	pop	ebp
	ret	16					; 00000010H
$LN14@WndProc:

; 384  : 		break;	
; 385  :     case WM_SETCURSOR:
; 386  : 		if (gbIsFull)

	cmp	DWORD PTR ?gbIsFull@@3HA, 0		; gbIsFull
	je	$LN15@WndProc

; 387  : 		{
; 388  : 			SetCursor(NULL);	

	push	0
	call	DWORD PTR __imp__SetCursor@4
	pop	edi

; 389  : 			return TRUE;

	mov	eax, 1

; 395  : }

	pop	esi
	pop	ebp
	ret	16					; 00000010H
$LN17@WndProc:

; 365  :     switch( message )

	mov	eax, edi
	sub	eax, 256				; 00000100H
	je	SHORT $LN4@WndProc
	sub	eax, 2
	jne	SHORT $LN15@WndProc

; 368  :     case WM_CHAR        :
; 369  :         if (wParam == 'i' || wParam == 'I') { gAppSet.bIsDisplayInfo = !gAppSet.bIsDisplayInfo; break; }

	cmp	esi, 105				; 00000069H
	je	SHORT $LN7@WndProc
	cmp	esi, 73					; 00000049H
	je	SHORT $LN7@WndProc

; 370  : 		if (wParam == 'p' || wParam == 'P')

	cmp	esi, 112				; 00000070H
	je	SHORT $LN9@WndProc
	cmp	esi, 80					; 00000050H
	jne	SHORT $LN15@WndProc
$LN9@WndProc:

; 390  : 		}		
; 391  : 		break;
; 392  : 	}
; 393  : 
; 394  :     return DefWindowProc(hwnd, message, wParam, lParam);

	push	DWORD PTR _lParam$[ebp]
	xor	eax, eax
	cmp	DWORD PTR ?gAppSet@@3UtagAPP_SET@@A, eax
	push	esi
	push	edi
	push	DWORD PTR _hwnd$[ebp]
	sete	al
	mov	DWORD PTR ?gAppSet@@3UtagAPP_SET@@A, eax
	call	DWORD PTR __imp__DefWindowProcA@16
	pop	edi

; 395  : }

	pop	esi
	pop	ebp
	ret	16					; 00000010H
$LN7@WndProc:

; 390  : 		}		
; 391  : 		break;
; 392  : 	}
; 393  : 
; 394  :     return DefWindowProc(hwnd, message, wParam, lParam);

	push	DWORD PTR _lParam$[ebp]
	xor	eax, eax
	cmp	DWORD PTR ?gAppSet@@3UtagAPP_SET@@A+8, eax
	push	esi
	push	edi
	push	DWORD PTR _hwnd$[ebp]
	sete	al
	mov	DWORD PTR ?gAppSet@@3UtagAPP_SET@@A+8, eax
	call	DWORD PTR __imp__DefWindowProcA@16
	pop	edi

; 395  : }

	pop	esi
	pop	ebp
	ret	16					; 00000010H
$LN4@WndProc:

; 366  :     {
; 367  :     case WM_KEYDOWN     : __WinKeyDown(hwnd, wParam); break;

	push	esi
	push	DWORD PTR _hwnd$[ebp]
	call	?__WinKeyDown@@YAXPAUHWND__@@I@Z	; __WinKeyDown
	add	esp, 8
$LN15@WndProc:

; 390  : 		}		
; 391  : 		break;
; 392  : 	}
; 393  : 
; 394  :     return DefWindowProc(hwnd, message, wParam, lParam);

	push	DWORD PTR _lParam$[ebp]
	push	esi
	push	edi
	push	DWORD PTR _hwnd$[ebp]
	call	DWORD PTR __imp__DefWindowProcA@16
	pop	edi

; 395  : }

	pop	esi
	pop	ebp
	ret	16					; 00000010H
?__WndProc@@YGJPAUHWND__@@IIJ@Z ENDP			; __WndProc
_TEXT	ENDS
; Function compile flags: /Ogtp
; File c:\users\administrator\desktop\김지훈 - 미러월드\1.src\dxwframe.cpp
;	COMDAT ?DXW_ReleaseWinMode@@YAXXZ
_TEXT	SEGMENT
?DXW_ReleaseWinMode@@YAXXZ PROC				; DXW_ReleaseWinMode, COMDAT

; 482  :     TRACE0("DXW_ReleaseWinMode\n");
; 483  : }

	ret	0
?DXW_ReleaseWinMode@@YAXXZ ENDP				; DXW_ReleaseWinMode
_TEXT	ENDS
; Function compile flags: /Ogtp
; File c:\users\administrator\desktop\김지훈 - 미러월드\1.src\dxwframe.cpp
;	COMDAT ?DXW_DisplayInfo@@YAXXZ
_TEXT	SEGMENT
?DXW_DisplayInfo@@YAXXZ PROC				; DXW_DisplayInfo, COMDAT

; 4428 : 	///// 프레임수 측정 및 기타 정보
; 4429 :     if (gAppSet.bIsDisplayInfo)

	cmp	DWORD PTR ?gAppSet@@3UtagAPP_SET@@A+8, 0
	je	$LN2@DXW_Displa

; 4430 :     {
; 4431 : 		DWORD dwFps = gFpsMng.GetFPS();

	push	esi
	mov	ecx, OFFSET ?gFpsMng@@3VCFpsMng@@A	; gFpsMng
	call	?GetFPS@CFpsMng@@QAEKXZ			; CFpsMng::GetFPS

; 4432 : 
; 4433 : 		/////
; 4434 : 		__GetDC(g_pDDSBack);

	push	DWORD PTR ?g_pDDSBack@@3PAUIDirectDrawSurface7@@A ; g_pDDSBack
	mov	esi, eax
	call	?__GetDC@@YAXPAUIDirectDrawSurface7@@@Z	; __GetDC

; 4435 : 		{
; 4436 : 			__PutTextf(10, 30, PEN, "P3PAT %d/%d", P3randpat,P3randpat2);

	push	DWORD PTR ?P3randpat2@@3HA		; P3randpat2
	push	DWORD PTR ?P3randpat@@3HA		; P3randpat
	push	OFFSET ??_C@_0M@JLGAMLOF@P3PAT?5?$CFd?1?$CFd@
	push	16777215				; 00ffffffH
	push	30					; 0000001eH
	push	10					; 0000000aH
	call	?__PutTextf@@YAXHHKPADZZ		; __PutTextf

; 4437 : 			__PutTextf(10, 10, PEN, "FPS %d", dwFps);

	push	esi
	push	OFFSET ??_C@_06KJFAFILI@FPS?5?$CFd@
	push	16777215				; 00ffffffH
	push	10					; 0000000aH
	push	10					; 0000000aH
	call	?__PutTextf@@YAXHHKPADZZ		; __PutTextf

; 4438 : 			__PutTextf(465, 741, PEN, "%d/%d", PlayerHP, PlayerMHP);

	push	DWORD PTR ?PlayerMHP@@3HA		; PlayerMHP
	push	DWORD PTR ?PlayerHP@@3HA		; PlayerHP
	push	OFFSET ??_C@_05LCKIIOJE@?$CFd?1?$CFd@
	push	16777215				; 00ffffffH
	push	741					; 000002e5H
	push	465					; 000001d1H
	call	?__PutTextf@@YAXHHKPADZZ		; __PutTextf
	add	esp, 72					; 00000048H

; 4439 : 		}
; 4440 : 		__ReleaseDC(g_pDDSBack);

	push	DWORD PTR ?g_pDDSBack@@3PAUIDirectDrawSurface7@@A ; g_pDDSBack
	call	?__ReleaseDC@@YAXPAUIDirectDrawSurface7@@@Z ; __ReleaseDC
	add	esp, 4
	pop	esi
$LN2@DXW_Displa:

; 4441 : 	}
; 4442 : }

	ret	0
?DXW_DisplayInfo@@YAXXZ ENDP				; DXW_DisplayInfo
_TEXT	ENDS
; Function compile flags: /Ogtp
; File c:\users\administrator\desktop\김지훈 - 미러월드\1.src\dxwframe.cpp
;	COMDAT ?DXW_MainLoop@@YAXXZ
_TEXT	SEGMENT
$T1 = -48						; size = 16
$T2 = -48						; size = 16
$T3 = -48						; size = 16
$T4 = -48						; size = 16
$T5 = -48						; size = 16
$T6 = -48						; size = 16
$T7 = -48						; size = 16
$T8 = -48						; size = 16
$T9 = -48						; size = 16
$T10 = -48						; size = 16
$T11 = -48						; size = 16
$T12 = -48						; size = 16
$T13 = -48						; size = 16
$T14 = -48						; size = 16
$T15 = -48						; size = 16
$T16 = -48						; size = 16
$T17 = -48						; size = 16
$T18 = -48						; size = 16
$T19 = -48						; size = 16
$T20 = -48						; size = 16
$T21 = -48						; size = 16
$T22 = -48						; size = 16
$T23 = -48						; size = 16
$T24 = -48						; size = 16
$T25 = -28						; size = 4
$T26 = -28						; size = 4
$T27 = -28						; size = 4
$T28 = -28						; size = 4
tv11812 = -28						; size = 4
tv12032 = -24						; size = 4
tv11905 = -24						; size = 4
tv11446 = -24						; size = 4
?SpikeX@@3PAHA$1 = -20					; size = 4
$T29 = -20						; size = 4
_nX$3$ = -20						; size = 4
tv11976 = -20						; size = 4
_bnY$3$ = -16						; size = 4
_bnY$2$ = -16						; size = 4
_nY$2$ = -16						; size = 4
?SpikeX@@3PAHA$2 = -12					; size = 4
?BARR@@3HA$1 = -12					; size = 4
$T30 = -12						; size = 4
?BAR@@3HA$3 = -12					; size = 4
?BAR@@3HA$2 = -12					; size = 4
?BAR@@3HA$1 = -12					; size = 4
tv12039 = -12						; size = 4
tv12037 = -12						; size = 4
_bnY$1$ = -8						; size = 4
_bnX$3$ = -8						; size = 4
_bnX$2$ = -8						; size = 4
_nY$3$ = -4						; size = 4
_bnX$1$ = -4						; size = 4
_nY$1$ = -4						; size = 4
?DXW_MainLoop@@YAXXZ PROC				; DXW_MainLoop, COMDAT

; 636  : {

	push	ebx
	mov	ebx, esp
	sub	esp, 8
	and	esp, -16				; fffffff0H
	add	esp, 4
	push	ebp
	mov	ebp, DWORD PTR [ebx+4]
	mov	DWORD PTR [esp+4], ebp
	mov	ebp, esp

; 637  : 	HRESULT hRet;
; 638  : 
; 639  : 	//////////////////////////////////////////////////////////		
; 640  : 	RECT rcBox = { 100, 100, 300, 300 };
; 641  : 
; 642  : 	//// 연산처리
; 643  : 	WORD wPixel = __GetPixelRGB16(0, 0, 0);
; 644  : 	int nX, bnX; //플레이어와 보스의 X좌표
; 645  : 	int nY, bnY; //플레이어와 보스의 Y좌표
; 646  : 	int SnX, SnY; //스킬을 표시할 X,Y좌표.
; 647  : 	int i = 0;
; 648  : 	if (g_nPhaze >= 1 && Knockback == FALSE && PlayerHP > 1 && g_nPhaze < 4)

	mov	ecx, DWORD PTR ?g_nPhaze@@3HA		; g_nPhaze
	sub	esp, 56					; 00000038H
	push	esi
	mov	esi, DWORD PTR __imp__GetKeyState@4
	push	edi
	mov	edi, DWORD PTR ?Knockback@@3HA		; Knockback
	cmp	ecx, 1
	jl	$LN1311@DXW_MainLo
	test	edi, edi
	jne	$LN1311@DXW_MainLo
	cmp	DWORD PTR ?PlayerHP@@3HA, 1		; PlayerHP
	jle	$LN1311@DXW_MainLo
	cmp	ecx, 4
	jge	$LN1311@DXW_MainLo

; 649  : 	{
; 650  : 		if (::GetKeyState(VK_LEFT) & 0x80 && g_bJump == 0 && g_bAtt == FALSE && g_bRush == FALSE) //왼쪽 이동 로직

	push	37					; 00000025H
	call	esi
	test	al, al
	mov	eax, DWORD PTR ?g_bJump@@3HA		; g_bJump
	jns	SHORT $LN47@DXW_MainLo
	test	eax, eax
	jne	SHORT $LN47@DXW_MainLo
	cmp	DWORD PTR ?g_bAtt@@3HA, eax		; g_bAtt
	jne	SHORT $LN47@DXW_MainLo
	cmp	DWORD PTR ?g_bRush@@3HA, eax		; g_bRush
	jne	SHORT $LN47@DXW_MainLo

; 651  : 		{
; 652  : 			Hspeed -= 2;

	sub	DWORD PTR ?Hspeed@@3HA, 2		; Hspeed

; 653  : 			g_bAccel = TRUE;

	mov	DWORD PTR ?g_bAccel@@3HA, 1		; g_bAccel

; 654  : 			g_bLeft = TRUE;

	mov	DWORD PTR ?g_bLeft@@3HA, 1		; g_bLeft

; 655  : 			g_bRight = FALSE;

	mov	DWORD PTR ?g_bRight@@3HA, eax		; g_bRight

; 656  : 			g_bLookL = TRUE;

	mov	DWORD PTR ?g_bLookL@@3HA, 1		; g_bLookL

; 657  : 			g_bLookR = FALSE;

	mov	DWORD PTR ?g_bLookR@@3HA, eax		; g_bLookR
	jmp	SHORT $LN1297@DXW_MainLo
$LN47@DXW_MainLo:

; 658  : 		}
; 659  : 		else if (g_Pos.x > 0 && g_bJump == 1) //점프 중 가속

	cmp	DWORD PTR ?g_Pos@@3UtagPOINT@@A, 0
	jle	SHORT $LN1297@DXW_MainLo
	cmp	eax, 1
	jne	SHORT $LN1297@DXW_MainLo

; 660  : 		{
; 661  : 			if (g_bJLeft == 1)

	cmp	DWORD PTR ?g_bJLeft@@3HA, eax		; g_bJLeft
	jne	SHORT $LN50@DXW_MainLo

; 662  : 			{
; 663  : 				if (g_bSetSpeed == 0)

	cmp	DWORD PTR ?g_bSetSpeed@@3HA, 0		; g_bSetSpeed
	jne	SHORT $LN1074@DXW_MainLo

; 664  : 				{
; 665  : 					Hspeed -= 1;

	dec	DWORD PTR ?Hspeed@@3HA			; Hspeed

; 666  : 				}
; 667  : 				/*if (g_bJaccel == 1)
; 668  : 				{
; 669  : 				Hspeed -= 1;
; 670  : 				}*/
; 671  : 			}

	jmp	SHORT $LN1074@DXW_MainLo
$LN50@DXW_MainLo:

; 672  : 			else if (g_bJRight == 0 && ::GetKeyState(VK_LEFT) & 0x80) //점프 중 가속

	cmp	DWORD PTR ?g_bJRight@@3HA, 0		; g_bJRight
	jne	SHORT $LN1297@DXW_MainLo
	push	37					; 00000025H
	call	esi
	test	al, al
	jns	SHORT $LN1297@DXW_MainLo

; 673  : 			{
; 674  : 				if (Hspeed > -2)

	mov	eax, DWORD PTR ?Hspeed@@3HA		; Hspeed
	cmp	eax, -2					; fffffffeH
	jle	SHORT $LN1297@DXW_MainLo

; 675  : 				{
; 676  : 					Hspeed -= 1;

	dec	eax
	mov	DWORD PTR ?Hspeed@@3HA, eax		; Hspeed
$LN1297@DXW_MainLo:

; 677  : 				}
; 678  : 			}
; 679  : 		}
; 680  : 		if (g_bJLeft == 1 && ::GetKeyState(VK_RIGHT) & 0x80) //점프 중 반대 키를 눌렀을때 감속.

	cmp	DWORD PTR ?g_bJLeft@@3HA, 1		; g_bJLeft
	jne	SHORT $LN57@DXW_MainLo
$LN1074@DXW_MainLo:
	push	39					; 00000027H
	call	esi
	test	al, al
	jns	SHORT $LN57@DXW_MainLo

; 681  : 		{
; 682  : 			if (Hspeed > -3)

	mov	eax, DWORD PTR ?Hspeed@@3HA		; Hspeed
	cmp	eax, -3					; fffffffdH
	jle	SHORT $LN56@DXW_MainLo

; 683  : 			{
; 684  : 				Hspeed += 1;

	inc	eax

; 685  : 				g_bSetSpeed = TRUE; //감속 한계치 설정

	mov	DWORD PTR ?g_bSetSpeed@@3HA, 1		; g_bSetSpeed
	mov	DWORD PTR ?Hspeed@@3HA, eax		; Hspeed

; 686  : 			}
; 687  : 			else

	jmp	SHORT $LN57@DXW_MainLo
$LN56@DXW_MainLo:

; 688  : 			{
; 689  : 				Hspeed = -3;

	mov	DWORD PTR ?Hspeed@@3HA, -3		; Hspeed, fffffffdH
$LN57@DXW_MainLo:

; 690  : 			}
; 691  : 		}
; 692  : 		//////////////////
; 693  : 		if (::GetKeyState(VK_RIGHT) & 0x80 && g_bJump == 0 && g_bAtt == FALSE && g_bRush == FALSE) //오른쪽 이동 로직

	push	39					; 00000027H
	call	esi
	test	al, al
	jns	SHORT $LN58@DXW_MainLo
	cmp	DWORD PTR ?g_bJump@@3HA, 0		; g_bJump
	jne	SHORT $LN58@DXW_MainLo
	cmp	DWORD PTR ?g_bAtt@@3HA, 0		; g_bAtt
	jne	SHORT $LN58@DXW_MainLo
	cmp	DWORD PTR ?g_bRush@@3HA, 0		; g_bRush
	jne	SHORT $LN58@DXW_MainLo

; 694  : 		{
; 695  : 			Hspeed += 1;

	mov	eax, DWORD PTR ?Hspeed@@3HA		; Hspeed
	inc	eax

; 696  : 			g_bAccel = TRUE;

	mov	DWORD PTR ?g_bAccel@@3HA, 1		; g_bAccel
	mov	DWORD PTR ?Hspeed@@3HA, eax		; Hspeed

; 697  : 			g_bLeft = FALSE;

	mov	DWORD PTR ?g_bLeft@@3HA, 0		; g_bLeft

; 698  : 			g_bRight = TRUE;

	mov	DWORD PTR ?g_bRight@@3HA, 1		; g_bRight

; 699  : 			g_bLookR = TRUE;

	mov	DWORD PTR ?g_bLookR@@3HA, 1		; g_bLookR

; 700  : 			g_bLookL = FALSE;

	mov	DWORD PTR ?g_bLookL@@3HA, 0		; g_bLookL
	jmp	SHORT $LN65@DXW_MainLo
$LN58@DXW_MainLo:

; 701  : 		}
; 702  : 		else if (g_Pos.x < HRES - 50 && g_bJump == 1)

	cmp	DWORD PTR ?g_Pos@@3UtagPOINT@@A, 974	; 000003ceH
	jge	SHORT $LN1301@DXW_MainLo
	cmp	DWORD PTR ?g_bJump@@3HA, 1		; g_bJump
	jne	SHORT $LN1301@DXW_MainLo

; 703  : 		{
; 704  : 			if (g_bJRight == 1)

	cmp	DWORD PTR ?g_bJRight@@3HA, 1		; g_bJRight
	jne	SHORT $LN61@DXW_MainLo

; 705  : 			{
; 706  : 				if (g_bSetSpeed == 0)

	cmp	DWORD PTR ?g_bSetSpeed@@3HA, 0		; g_bSetSpeed
	jne	SHORT $LN1075@DXW_MainLo

; 707  : 				{
; 708  : 					Hspeed += 1;

	inc	DWORD PTR ?Hspeed@@3HA			; Hspeed

; 709  : 				}
; 710  : 				/*if (g_bJaccel == 1)
; 711  : 				{
; 712  : 				Hspeed += 1;
; 713  : 				}*/
; 714  : 			}

	jmp	SHORT $LN1075@DXW_MainLo
$LN61@DXW_MainLo:

; 715  : 			else if (g_bJLeft == 0 && ::GetKeyState(VK_RIGHT) & 0x80)

	cmp	DWORD PTR ?g_bJLeft@@3HA, 0		; g_bJLeft
	jne	SHORT $LN1301@DXW_MainLo
	push	39					; 00000027H
	call	esi
	test	al, al
	mov	eax, DWORD PTR ?Hspeed@@3HA		; Hspeed
	jns	SHORT $LN65@DXW_MainLo

; 716  : 			{
; 717  : 				if (Hspeed < 2)

	cmp	eax, 2
	jge	SHORT $LN65@DXW_MainLo

; 718  : 				{
; 719  : 					Hspeed += 1;

	inc	eax
	mov	DWORD PTR ?Hspeed@@3HA, eax		; Hspeed
	jmp	SHORT $LN65@DXW_MainLo
$LN1301@DXW_MainLo:

; 720  : 				}
; 721  : 			}
; 722  : 		}
; 723  : 		if (g_bJRight == 1 && ::GetKeyState(VK_LEFT) & 0x80)

	mov	eax, DWORD PTR ?Hspeed@@3HA		; Hspeed
$LN65@DXW_MainLo:
	cmp	DWORD PTR ?g_bJRight@@3HA, 1		; g_bJRight
	jne	SHORT $LN68@DXW_MainLo
$LN1075@DXW_MainLo:
	push	37					; 00000025H
	call	esi
	test	al, al
	mov	eax, DWORD PTR ?Hspeed@@3HA		; Hspeed
	jns	SHORT $LN68@DXW_MainLo

; 724  : 		{
; 725  : 			if (Hspeed > 3)

	cmp	eax, 3
	jle	SHORT $LN67@DXW_MainLo

; 726  : 			{
; 727  : 				Hspeed -= 1;

	dec	eax

; 728  : 				g_bSetSpeed = TRUE;

	mov	DWORD PTR ?g_bSetSpeed@@3HA, 1		; g_bSetSpeed

; 729  : 			}
; 730  : 			else

	jmp	SHORT $LN1591@DXW_MainLo
$LN67@DXW_MainLo:

; 731  : 			{
; 732  : 				Hspeed = 3;

	mov	eax, 3
$LN1591@DXW_MainLo:

; 733  : 			}
; 734  : 		}
; 735  : 		if (g_bAtt == TRUE && g_bJump == FALSE)

	mov	DWORD PTR ?Hspeed@@3HA, eax		; Hspeed
$LN68@DXW_MainLo:
	cmp	DWORD PTR ?g_bAtt@@3HA, 1		; g_bAtt
	jne	SHORT $LN72@DXW_MainLo
	cmp	DWORD PTR ?g_bJump@@3HA, 0		; g_bJump
	jne	SHORT $LN72@DXW_MainLo

; 736  : 		{
; 737  : 			if (Hspeed > 0)

	test	eax, eax
	jle	SHORT $LN1440@DXW_MainLo

; 738  : 			{
; 739  : 				Hspeed -= 1;

	dec	eax
	jmp	SHORT $LN1441@DXW_MainLo
$LN1440@DXW_MainLo:

; 740  : 			}
; 741  : 			else if (Hspeed < 0)

	jns	SHORT $LN72@DXW_MainLo

; 742  : 			{
; 743  : 				Hspeed += 1;

	inc	eax
$LN1441@DXW_MainLo:

; 744  : 			}
; 745  : 		}
; 746  : 		if (g_bRush == TRUE)

	mov	DWORD PTR ?Hspeed@@3HA, eax		; Hspeed
$LN72@DXW_MainLo:
	cmp	DWORD PTR ?g_bRush@@3HA, 1		; g_bRush
	jne	SHORT $LN73@DXW_MainLo

; 747  : 		{
; 748  : 			if (Hspeed > 0)

	test	eax, eax
	jg	SHORT $LN1296@DXW_MainLo

; 749  : 			{
; 750  : 				Hspeed = 0;
; 751  : 			}
; 752  : 			else if (Hspeed < 0)

	jns	SHORT $LN84@DXW_MainLo
$LN1296@DXW_MainLo:

; 753  : 			{
; 754  : 				Hspeed = 0;

	mov	DWORD PTR ?Hspeed@@3HA, 0		; Hspeed

; 755  : 			}
; 756  : 		}

	jmp	SHORT $LN84@DXW_MainLo
$LN73@DXW_MainLo:

; 757  : 		///////////////////////
; 758  : 		///////////////////////
; 759  : 		///////////////////////
; 760  : 		///////////////////////
; 761  : 		//아무 키도 입력하지 않았을 경우 감속
; 762  : 		else if (::GetKeyState(VK_LEFT) & 0x80) {}

	push	37					; 00000025H
	call	esi
	test	al, al
	js	SHORT $LN84@DXW_MainLo

; 763  : 		else if (::GetKeyState(VK_RIGHT) & 0x80) {}

	push	39					; 00000027H
	call	esi
	test	al, al
	js	SHORT $LN84@DXW_MainLo

; 764  : 		else {
; 765  : 			g_bAccel = FALSE; g_bLeft = FALSE; g_bRight = FALSE;
; 766  : 			if (Hspeed > 0)

	mov	eax, DWORD PTR ?Hspeed@@3HA		; Hspeed
	mov	DWORD PTR ?g_bAccel@@3HA, 0		; g_bAccel
	mov	DWORD PTR ?g_bLeft@@3HA, 0		; g_bLeft
	mov	DWORD PTR ?g_bRight@@3HA, 0		; g_bRight
	test	eax, eax
	jle	SHORT $LN1442@DXW_MainLo

; 767  : 			{
; 768  : 				Hspeed -= 1;

	dec	eax
	jmp	SHORT $LN1443@DXW_MainLo
$LN1442@DXW_MainLo:

; 769  : 			}
; 770  : 			else if (Hspeed < 0)

	jns	SHORT $LN84@DXW_MainLo

; 771  : 			{
; 772  : 				Hspeed += 1;

	inc	eax
$LN1443@DXW_MainLo:

; 773  : 			}
; 774  : 		}
; 775  : 		//점프 로직
; 776  : 		if (::GetKeyState(0x5A) & 0x80 && g_bJump == FALSE && g_bAtt == FALSE)

	mov	DWORD PTR ?Hspeed@@3HA, eax		; Hspeed
$LN84@DXW_MainLo:
	push	90					; 0000005aH
	call	esi
	test	al, al
	jns	SHORT $LN88@DXW_MainLo
	cmp	DWORD PTR ?g_bJump@@3HA, 0		; g_bJump
	jne	SHORT $LN88@DXW_MainLo
	cmp	DWORD PTR ?g_bAtt@@3HA, 0		; g_bAtt
	jne	SHORT $LN88@DXW_MainLo

; 777  : 		{
; 778  : 			g_bJump = TRUE;
; 779  : 			if (g_bAccel == 1)

	cmp	DWORD PTR ?g_bAccel@@3HA, 1		; g_bAccel
	mov	ecx, 1
	mov	eax, DWORD PTR ?g_bJaccel@@3HA		; g_bJaccel
	cmove	eax, ecx
	mov	DWORD PTR ?g_bJump@@3HA, 1		; g_bJump
	mov	DWORD PTR ?g_bJaccel@@3HA, eax		; g_bJaccel

; 780  : 			{
; 781  : 				g_bJaccel = TRUE;
; 782  : 			}
; 783  : 			if (g_bRight == 1)

	cmp	DWORD PTR ?g_bRight@@3HA, ecx		; g_bRight
	jne	SHORT $LN87@DXW_MainLo

; 784  : 			{
; 785  : 				g_bJRight = TRUE;

	mov	DWORD PTR ?g_bJRight@@3HA, ecx		; g_bJRight

; 786  : 				g_bJLeft = FALSE;

	mov	DWORD PTR ?g_bJLeft@@3HA, 0		; g_bJLeft
$LN87@DXW_MainLo:

; 787  : 			}
; 788  : 			if (g_bLeft == 1)

	cmp	DWORD PTR ?g_bLeft@@3HA, ecx		; g_bLeft
	jne	SHORT $LN88@DXW_MainLo

; 789  : 			{
; 790  : 				g_bJLeft = TRUE;

	mov	DWORD PTR ?g_bJLeft@@3HA, ecx		; g_bJLeft

; 791  : 				g_bJRight = FALSE;

	mov	DWORD PTR ?g_bJRight@@3HA, 0		; g_bJRight
$LN88@DXW_MainLo:

; 792  : 			}
; 793  : 		}
; 794  : 		//가속도 최대치 설정
; 795  : 		if (Hspeed > 5)

	mov	eax, DWORD PTR ?Hspeed@@3HA		; Hspeed
	cmp	eax, 5
	jle	SHORT $LN89@DXW_MainLo

; 796  : 		{
; 797  : 			Hspeed = 5;

	mov	DWORD PTR ?Hspeed@@3HA, 5		; Hspeed
	jmp	SHORT $LN91@DXW_MainLo
$LN89@DXW_MainLo:

; 798  : 		}
; 799  : 		else if (Hspeed < -5)

	mov	ecx, -5					; fffffffbH
	cmp	eax, ecx
	cmovl	eax, ecx
	mov	DWORD PTR ?Hspeed@@3HA, eax		; Hspeed
$LN91@DXW_MainLo:

; 800  : 		{
; 801  : 			Hspeed = -5;
; 802  : 		}
; 803  : 		if (::GetKeyState(0x43) & 0x80 && g_bJump == FALSE && g_bRush == FALSE && Timer[9] == 0 && g_bLookR == TRUE)

	push	67					; 00000043H
	call	esi
	test	al, al
	jns	$LN92@DXW_MainLo
	cmp	DWORD PTR ?g_bJump@@3HA, 0		; g_bJump
	jne	SHORT $LN92@DXW_MainLo
	cmp	DWORD PTR ?g_bRush@@3HA, 0		; g_bRush
	jne	SHORT $LN92@DXW_MainLo
	cmp	DWORD PTR ?Timer@@3PAHA+36, 0
	jne	SHORT $LN92@DXW_MainLo
	cmp	DWORD PTR ?g_bLookR@@3HA, 1		; g_bLookR
	jne	SHORT $LN92@DXW_MainLo

; 804  : 		{
; 805  : 			if (g_bAtt == TRUE)

	cmp	DWORD PTR ?g_bAtt@@3HA, 1		; g_bAtt
	jne	SHORT $LN95@DXW_MainLo

; 806  : 			{
; 807  : 				Aframe == 0; g_bAL = FALSE, g_bAR = FALSE, g_bAtt = FALSE; g_bHit = FALSE;
; 808  : 				if (g_pDS[3])

	mov	eax, DWORD PTR ?g_pDS@@3PAPAUIDirectSoundBuffer@@A+12
	mov	DWORD PTR ?g_bAL@@3HA, 0		; g_bAL
	mov	DWORD PTR ?g_bAR@@3HA, 0		; g_bAR
	mov	DWORD PTR ?g_bAtt@@3HA, 0		; g_bAtt
	mov	DWORD PTR ?g_bHit@@3HA, 0		; g_bHit
	test	eax, eax
	je	SHORT $LN95@DXW_MainLo

; 809  : 					m_HHSound.Stop(g_pDS[3]);

	push	eax
	mov	ecx, OFFSET ?m_HHSound@@3VCHHSound@@A	; m_HHSound
	call	?Stop@CHHSound@@QAEXPAUIDirectSoundBuffer@@@Z ; CHHSound::Stop
$LN95@DXW_MainLo:

; 810  : 			}
; 811  : 			g_bRush = TRUE;
; 812  : 			g_bRushR = TRUE;

	mov	DWORD PTR ?g_bRushR@@3HA, 1		; g_bRushR

; 813  : 			Cframe = 7;

	mov	DWORD PTR ?Cframe@@3HA, 7		; Cframe

; 814  : 			if (g_pDS[4])
; 815  : 				m_HHSound.Stop(g_pDS[4]);
; 816  : 			m_HHSound.Play(g_pDS[4], false);

	jmp	$LN1593@DXW_MainLo
$LN92@DXW_MainLo:

; 817  : 		}
; 818  : 		else if (::GetKeyState(0x43) & 0x80 && g_bJump == FALSE && g_bRush == FALSE && Timer[9] == 0 && g_bLookL == TRUE)

	push	67					; 00000043H
	call	esi
	test	al, al
	jns	$LN1304@DXW_MainLo
	cmp	DWORD PTR ?g_bJump@@3HA, 0		; g_bJump
	jne	$LN1304@DXW_MainLo
	cmp	DWORD PTR ?g_bRush@@3HA, 0		; g_bRush
	jne	$LN1304@DXW_MainLo
	cmp	DWORD PTR ?Timer@@3PAHA+36, 0
	jne	$LN1308@DXW_MainLo
